TN:
SF:/home/ruperson/Desktop/cpp-course/bigint/gtest/gtest.h
FN:20057,_Z13RUN_ALL_TESTSv
FNDA:10,_Z13RUN_ALL_TESTSv
FNF:1
FNH:1
DA:20057,10
DA:20058,10
LF:2
LH:2
end_of_record
SF:/home/ruperson/Desktop/cpp-course/bigint/gtest/gtest_main.cc
FN:34,main
FN:38,_Z41__static_initialization_and_destruction_0ii
FN:38,_GLOBAL__sub_I_main
FNDA:10,main
FNDA:10,_GLOBAL__sub_I_main
FNDA:10,_Z41__static_initialization_and_destruction_0ii
FNF:3
FNH:3
DA:34,10
DA:35,10
DA:36,10
DA:37,10
DA:38,30
LF:5
LH:5
end_of_record
TN:
SF:/home/ruperson/Desktop/cpp-course/bigint/gtest/gtest-all.cc
FN:536,_ZN7testing8internal21GetRandomSeedFromFlagEi
FN:552,_ZN7testing8internal17GetNextRandomSeedEi
FN:565,_ZN7testing8internal14GTestFlagSaverC2Ev
FN:586,_ZN7testing8internal14GTestFlagSaverD2Ev
FN:683,_ZN7testing8internal7CountIfISt6vectorIPNS_8TestCaseESaIS4_EEPFbPKS3_EEEiRKT_T0_
FN:683,_ZN7testing8internal7CountIfISt6vectorINS_14TestPartResultESaIS3_EEPFbRKS3_EEEiRKT_T0_
FN:683,_ZN7testing8internal7CountIfISt6vectorIPNS_8TestInfoESaIS4_EEPFbPKS3_EEEiRKT_T0_
FN:696,_ZN7testing8internal7ForEachISt6vectorIPNS_11EnvironmentESaIS4_EEPFvS4_EEEvRKT_T0_
FN:696,_ZN7testing8internal7ForEachISt6vectorIPNS_8TestCaseESaIS4_EEPFvS4_EEEvRKT_T0_
FN:696,_ZN7testing8internal7ForEachISt6vectorIPNS_8TestInfoESaIS4_EEPFvS4_EEEvRKT_T0_
FN:696,_ZN7testing8internal7ForEachISt6vectorIPNS_17TestEventListenerESaIS4_EEPFvS4_EEEvRKT_T0_
FN:703,_ZN7testing8internal12GetElementOrIiEET_RKSt6vectorIS2_SaIS2_EEiS2_
FN:712,_ZN7testing8internal12ShuffleRangeIiEEvPNS0_6RandomEiiPSt6vectorIT_SaIS5_EE
FN:733,_ZN7testing8internal7ShuffleIiEEvPNS0_6RandomEPSt6vectorIT_SaIS5_EE
FN:740,_ZN7testing8internalL6DeleteINS_8TestCaseEEEvPT_
FN:740,_ZN7testing8internalL6DeleteINS_11EnvironmentEEEvPT_
FN:740,_ZN7testing8internalL6DeleteINS_17TestEventListenerEEEvPT_
FN:740,_ZN7testing8internalL6DeleteINS_8TestInfoEEEvPT_
FN:747,_ZN7testing8internal17TestPropertyKeyIsD2Ev
FN:747,_ZN7testing8internal17TestPropertyKeyIsC2ERKS1_
FN:752,_ZN7testing8internal17TestPropertyKeyIsC2ERKNSt7__cxx1112basic_stringIcSt11char_traitsIcESaIcEEE
FN:755,_ZNK7testing8internal17TestPropertyKeyIsclERKNS_12TestPropertyE
FN:820,_ZN7testing8internal27OsStackTraceGetterInterfaceC2Ev
FN:821,_ZN7testing8internal27OsStackTraceGetterInterfaceD2Ev
FN:821,_ZN7testing8internal27OsStackTraceGetterInterfaceD0Ev
FN:841,_ZN7testing8internal18OsStackTraceGetterD0Ev
FN:841,_ZN7testing8internal18OsStackTraceGetterD2Ev
FN:843,_ZN7testing8internal18OsStackTraceGetterC2Ev
FN:867,_ZN7testing8internal9TraceInfoC2EOS1_
FN:867,_ZN7testing8internal9TraceInfoC2Ev
FN:867,_ZN7testing8internal9TraceInfoC2ERKS1_
FN:867,_ZN7testing8internal9TraceInfoD2Ev
FN:875,_ZN7testing8internal35DefaultGlobalTestPartResultReporterD2Ev
FN:875,_ZN7testing8internal35DefaultGlobalTestPartResultReporterD0Ev
FN:891,_ZN7testing8internal38DefaultPerThreadTestPartResultReporterD0Ev
FN:891,_ZN7testing8internal38DefaultPerThreadTestPartResultReporterD2Ev
FN:971,_ZNK7testing8internal12UnitTestImpl15start_timestampEv
FN:974,_ZNK7testing8internal12UnitTestImpl12elapsed_timeEv
FN:977,_ZNK7testing8internal12UnitTestImpl6PassedEv
FN:981,_ZNK7testing8internal12UnitTestImpl6FailedEv
FN:987,_ZNK7testing8internal12UnitTestImpl11GetTestCaseEi
FN:994,_ZN7testing8internal12UnitTestImpl18GetMutableTestCaseEi
FN:1000,_ZN7testing8internal12UnitTestImpl9listenersEv
FN:1007,_ZNK7testing8internal12UnitTestImpl18ad_hoc_test_resultEv
FN:1055,_ZN7testing8internal12UnitTestImpl11AddTestInfoEPFvvES3_PNS_8TestInfoE
FN:1080,_ZN7testing8internal12UnitTestImpl27parameterized_test_registryEv
FN:1086,_ZN7testing8internal12UnitTestImpl21set_current_test_caseEPNS_8TestCaseE
FN:1093,_ZN7testing8internal12UnitTestImpl21set_current_test_infoEPNS_8TestInfoE
FN:1112,_ZN7testing8internal12UnitTestImpl23ClearNonAdHocTestResultEv
FN:1143,_ZNK7testing8internal12UnitTestImpl17current_test_caseEv
FN:1144,_ZN7testing8internal12UnitTestImpl17current_test_infoEv
FN:1145,_ZNK7testing8internal12UnitTestImpl17current_test_infoEv
FN:1149,_ZN7testing8internal12UnitTestImpl12environmentsEv
FN:1152,_ZN7testing8internal12UnitTestImpl17gtest_trace_stackEv
FN:1160,_ZN7testing8internal12UnitTestImpl34InitDeathTestSubprocessControlInfoEv
FN:1167,_ZNK7testing8internal12UnitTestImpl28internal_run_death_test_flagEv
FN:1172,_ZN7testing8internal12UnitTestImpl18death_test_factoryEv
FN:1199,_ZNK7testing8internal12UnitTestImpl11random_seedEv
FN:1202,_ZN7testing8internal12UnitTestImpl6randomEv
FN:1213,_ZNK7testing8internal12UnitTestImpl16catch_exceptionsEv
FN:1220,_ZN7testing8internal12UnitTestImpl20set_catch_exceptionsEb
FN:1337,_ZN7testing8internal15GetUnitTestImplEv
FN:1403,_ZN7testing8internal18ParseNaturalNumberIiEEbRKNSt7__cxx1112basic_stringIcSt11char_traitsIcESaIcEEEPT_
FN:1471,_ZN7testing8internal17StreamingListenerD2Ev
FN:1471,_ZN7testing8internal17StreamingListenerD0Ev
FN:1474,_ZN7testing8internal17StreamingListener20AbstractSocketWriterC2Ev
FN:1476,_ZN7testing8internal17StreamingListener20AbstractSocketWriterD2Ev
FN:1476,_ZN7testing8internal17StreamingListener20AbstractSocketWriterD0Ev
FN:1482,_ZN7testing8internal17StreamingListener20AbstractSocketWriter15CloseConnectionEv
FN:1485,_ZN7testing8internal17StreamingListener20AbstractSocketWriter6SendLnERKNSt7__cxx1112basic_stringIcSt11char_traitsIcESaIcEEE
FN:1493,_ZN7testing8internal17StreamingListener12SocketWriterC2ERKNSt7__cxx1112basic_stringIcSt11char_traitsIcESaIcEEESA_
FN:1498,_ZN7testing8internal17StreamingListener12SocketWriterD2Ev
FN:1498,_ZN7testing8internal17StreamingListener12SocketWriterD0Ev
FN:1504,_ZN7testing8internal17StreamingListener12SocketWriter4SendERKNSt7__cxx1112basic_stringIcSt11char_traitsIcESaIcEEE
FN:1521,_ZN7testing8internal17StreamingListener12SocketWriter15CloseConnectionEv
FN:1539,_ZN7testing8internal17StreamingListenerC2ERKNSt7__cxx1112basic_stringIcSt11char_traitsIcESaIcEEES9_
FN:1545,_ZN7testing8internal17StreamingListener18OnTestProgramStartERKNS_8UnitTestE
FN:1549,_ZN7testing8internal17StreamingListener16OnTestProgramEndERKNS_8UnitTestE
FN:1558,_ZN7testing8internal17StreamingListener20OnTestIterationStartERKNS_8UnitTestEi
FN:1563,_ZN7testing8internal17StreamingListener18OnTestIterationEndERKNS_8UnitTestEi
FN:1569,_ZN7testing8internal17StreamingListener15OnTestCaseStartERKNS_8TestCaseE
FN:1573,_ZN7testing8internal17StreamingListener13OnTestCaseEndERKNS_8TestCaseE
FN:1579,_ZN7testing8internal17StreamingListener11OnTestStartERKNS_8TestInfoE
FN:1583,_ZN7testing8internal17StreamingListener9OnTestEndERKNS_8TestInfoE
FN:1590,_ZN7testing8internal17StreamingListener16OnTestPartResultERKNS_14TestPartResultE
FN:1601,_ZN7testing8internal17StreamingListener6SendLnERKNSt7__cxx1112basic_stringIcSt11char_traitsIcESaIcEEE
FN:1605,_ZN7testing8internal17StreamingListener5StartEv
FN:1607,_ZN7testing8internal17StreamingListener10FormatBoolB5cxx11Eb
FN:1669,_ZN7testingL16GetDefaultFilterEv
FN:1775,_ZN7testing8internal6Random8GenerateEj
FN:1800,_ZN7testing8internalL18GTestIsInitializedEv
FN:1805,_ZN7testing8internalL19SumOverTestCaseListERKSt6vectorIPNS_8TestCaseESaIS3_EEMS2_KFivE
FN:1815,_ZN7testing8internalL14TestCasePassedEPKNS_8TestCaseE
FN:1820,_ZN7testing8internalL14TestCaseFailedEPKNS_8TestCaseE
FN:1826,_ZN7testing8internalL17ShouldRunTestCaseEPKNS_8TestCaseE
FN:1831,_ZN7testing8internal12AssertHelperC2ENS_14TestPartResult4TypeEPKciS5_
FN:1838,_ZN7testing8internal12AssertHelperD2Ev
FN:1843,_ZNK7testing8internal12AssertHelperaSERKNS_7MessageE
FN:1861,_ZN7testing8internal24GetCurrentExecutableNameEv
FN:1876,_ZN7testing8internal15UnitTestOptions15GetOutputFormatB5cxx11Ev
FN:1888,_ZN7testing8internal15UnitTestOptions27GetAbsolutePathToOutputFileB5cxx11Ev
FN:1924,_ZN7testing8internal15UnitTestOptions20PatternMatchesStringEPKcS3_
FN:1941,_ZN7testing8internal15UnitTestOptions13MatchesFilterERKNSt7__cxx1112basic_stringIcSt11char_traitsIcESaIcEEEPKc
FN:1964,_ZN7testing8internal15UnitTestOptions17FilterMatchesTestERKNSt7__cxx1112basic_stringIcSt11char_traitsIcESaIcEEES9_
FN:2025,_ZN7testing32ScopedFakeTestPartResultReporterC2EPNS_19TestPartResultArrayE
FN:2035,_ZN7testing32ScopedFakeTestPartResultReporterC2ENS0_13InterceptModeEPNS_19TestPartResultArrayE
FN:2042,_ZN7testing32ScopedFakeTestPartResultReporter4InitEv
FN:2055,_ZN7testing32ScopedFakeTestPartResultReporterD0Ev
FN:2055,_ZN7testing32ScopedFakeTestPartResultReporterD2Ev
FN:2066,_ZN7testing32ScopedFakeTestPartResultReporter20ReportTestPartResultERKNS_14TestPartResultE
FN:2082,_ZN7testing8internal13GetTestTypeIdEv
FN:2093,_ZN7testing8internal13HasOneFailureEPKcS2_S2_RKNS_19TestPartResultArrayENS_14TestPartResult4TypeERKNSt7__cxx1112basic_stringIcSt11char_traitsIcESaIcEEE
FN:2132,_ZN7testing8internal20SingleFailureCheckerC2EPKNS_19TestPartResultArrayENS_14TestPartResult4TypeERKNSt7__cxx1112basic_stringIcSt11char_traitsIcESaIcEEE
FN:2144,_ZN7testing8internal20SingleFailureCheckerD2Ev
FN:2148,_ZN7testing8internal35DefaultGlobalTestPartResultReporterC2EPNS0_12UnitTestImplE
FN:2151,_ZN7testing8internal35DefaultGlobalTestPartResultReporter20ReportTestPartResultERKNS_14TestPartResultE
FN:2157,_ZN7testing8internal38DefaultPerThreadTestPartResultReporterC2EPNS0_12UnitTestImplE
FN:2160,_ZN7testing8internal38DefaultPerThreadTestPartResultReporter20ReportTestPartResultERKNS_14TestPartResultE
FN:2167,_ZN7testing8internal12UnitTestImpl31GetGlobalTestPartResultReporterEv
FN:2173,_ZN7testing8internal12UnitTestImpl31SetGlobalTestPartResultReporterEPNS_31TestPartResultReporterInterfaceE
FN:2181,_ZN7testing8internal12UnitTestImpl41GetTestPartResultReporterForCurrentThreadEv
FN:2186,_ZN7testing8internal12UnitTestImpl41SetTestPartResultReporterForCurrentThreadEPNS_31TestPartResultReporterInterfaceE
FN:2192,_ZNK7testing8internal12UnitTestImpl26successful_test_case_countEv
FN:2197,_ZNK7testing8internal12UnitTestImpl22failed_test_case_countEv
FN:2202,_ZNK7testing8internal12UnitTestImpl21total_test_case_countEv
FN:2208,_ZNK7testing8internal12UnitTestImpl22test_case_to_run_countEv
FN:2213,_ZNK7testing8internal12UnitTestImpl21successful_test_countEv
FN:2218,_ZNK7testing8internal12UnitTestImpl17failed_test_countEv
FN:2223,_ZNK7testing8internal12UnitTestImpl30reportable_disabled_test_countEv
FN:2229,_ZNK7testing8internal12UnitTestImpl19disabled_test_countEv
FN:2234,_ZNK7testing8internal12UnitTestImpl21reportable_test_countEv
FN:2239,_ZNK7testing8internal12UnitTestImpl16total_test_countEv
FN:2244,_ZNK7testing8internal12UnitTestImpl17test_to_run_countEv
FN:2258,_ZN7testing8internal12UnitTestImpl28CurrentOsStackTraceExceptTopB5cxx11Ei
FN:2264,_ZN7testing8internal15GetTimeInMillisEv
FN:2360,_ZN7testing8internal6String13CStringEqualsEPKcS3_
FN:2372,_ZN7testing8internalL24StreamWideCharsToMessageEPKwmPNS_7MessageE
FN:2395,_ZN7testing7MessageC2Ev
FN:2403,_ZN7testing7MessagelsEPKw
FN:2406,_ZN7testing7MessagelsEPw
FN:2413,_ZN7testing7MessagelsERKNSt7__cxx1112basic_stringIwSt11char_traitsIwESaIwEEE
FN:2430,_ZNK7testing7Message9GetStringB5cxx11Ev
FN:2436,_ZN7testing15AssertionResultC2ERKS0_
FN:2444,_ZNK7testing15AssertionResultntEv
FN:2452,_ZN7testing16AssertionSuccessEv
FN:2457,_ZN7testing16AssertionFailureEv
FN:2463,_ZN7testing16AssertionFailureERKNS_7MessageE
FN:2484,_ZN7testing8internal9EqFailureEPKcS2_RKNSt7__cxx1112basic_stringIcSt11char_traitsIcESaIcEEESA_b
FN:2507,_ZN7testing8internal30GetBoolAssertionFailureMessageB5cxx11ERKNS_15AssertionResultEPKcS5_S5_
FN:2523,_ZN7testing8internal20DoubleNearPredFormatEPKcS2_S2_ddd
FN:2545,_ZN7testing8internal15FloatingPointLEIdEENS_15AssertionResultEPKcS4_T_S5_
FN:2545,_ZN7testing8internal15FloatingPointLEIfEENS_15AssertionResultEPKcS4_T_S5_
FN:2582,_ZN7testing7FloatLEEPKcS1_ff
FN:2589,_ZN7testing8DoubleLEEPKcS1_dd
FN:2598,_ZN7testing8internal11CmpHelperEQEPKcS2_xx
FN:2631,_ZN7testing8internal11CmpHelperNEEPKcS2_xx
FN:2634,_ZN7testing8internal11CmpHelperLEEPKcS2_xx
FN:2637,_ZN7testing8internal11CmpHelperLTEPKcS2_xx
FN:2640,_ZN7testing8internal11CmpHelperGEEPKcS2_xx
FN:2643,_ZN7testing8internal11CmpHelperGTEPKcS2_xx
FN:2648,_ZN7testing8internal14CmpHelperSTREQEPKcS2_S2_S2_
FN:2664,_ZN7testing8internal18CmpHelperSTRCASEEQEPKcS2_S2_S2_
FN:2680,_ZN7testing8internal14CmpHelperSTRNEEPKcS2_S2_S2_
FN:2694,_ZN7testing8internal18CmpHelperSTRCASENEEPKcS2_S2_S2_
FN:2718,_ZN7testing12_GLOBAL__N_115IsSubstringPredEPKcS2_
FN:2725,_ZN7testing12_GLOBAL__N_115IsSubstringPredEPKwS2_
FN:2734,_ZN7testing12_GLOBAL__N_115IsSubstringPredINSt7__cxx1112basic_stringIwSt11char_traitsIwESaIwEEEEEbRKT_SA_
FN:2734,_ZN7testing12_GLOBAL__N_115IsSubstringPredINSt7__cxx1112basic_stringIcSt11char_traitsIcESaIcEEEEEbRKT_SA_
FN:2744,_ZN7testing12_GLOBAL__N_115IsSubstringImplINSt7__cxx1112basic_stringIcSt11char_traitsIcESaIcEEEEENS_15AssertionResultEbPKcSA_RKT_SD_
FN:2744,_ZN7testing12_GLOBAL__N_115IsSubstringImplIPKwEENS_15AssertionResultEbPKcS6_RKT_S9_
FN:2744,_ZN7testing12_GLOBAL__N_115IsSubstringImplIPKcEENS_15AssertionResultEbS3_S3_RKT_S7_
FN:2744,_ZN7testing12_GLOBAL__N_115IsSubstringImplINSt7__cxx1112basic_stringIwSt11char_traitsIwESaIwEEEEENS_15AssertionResultEbPKcSA_RKT_SD_
FN:2767,_ZN7testing11IsSubstringEPKcS1_S1_S1_
FN:2773,_ZN7testing11IsSubstringEPKcS1_PKwS3_
FN:2779,_ZN7testing14IsNotSubstringEPKcS1_S1_S1_
FN:2785,_ZN7testing14IsNotSubstringEPKcS1_PKwS3_
FN:2791,_ZN7testing11IsSubstringEPKcS1_RKNSt7__cxx1112basic_stringIcSt11char_traitsIcESaIcEEES9_
FN:2797,_ZN7testing14IsNotSubstringEPKcS1_RKNSt7__cxx1112basic_stringIcSt11char_traitsIcESaIcEEES9_
FN:2804,_ZN7testing11IsSubstringEPKcS1_RKNSt7__cxx1112basic_stringIwSt11char_traitsIwESaIwEEES9_
FN:2810,_ZN7testing14IsNotSubstringEPKcS1_RKNSt7__cxx1112basic_stringIwSt11char_traitsIwESaIwEEES9_
FN:2908,_ZN7testing8internal11ChopLowBitsEPji
FN:2920,_ZN7testing8internal15CodePointToUtf8B5cxx11Ej
FN:2955,_ZN7testing8internal20IsUtf16SurrogatePairEww
FN:2961,_ZN7testing8internal37CreateCodePointFromUtf16SurrogatePairEww
FN:2984,_ZN7testing8internal16WideStringToUtf8B5cxx11EPKwi
FN:3009,_ZN7testing8internal6String15ShowWideCStringB5cxx11EPKw
FN:3021,_ZN7testing8internal6String17WideCStringEqualsEPKwS3_
FN:3030,_ZN7testing8internal14CmpHelperSTREQEPKcS2_PKwS4_
FN:3046,_ZN7testing8internal14CmpHelperSTRNEEPKcS2_PKwS4_
FN:3066,_ZN7testing8internal6String28CaseInsensitiveCStringEqualsEPKcS3_
FN:3086,_ZN7testing8internal6String32CaseInsensitiveWideCStringEqualsEPKwS3_
FN:3110,_ZN7testing8internal6String23EndsWithCaseInsensitiveERKNSt7__cxx1112basic_stringIcSt11char_traitsIcESaIcEEES9_
FN:3120,_ZN7testing8internal6String15FormatIntWidth2B5cxx11Ei
FN:3127,_ZN7testing8internal6String12FormatHexIntB5cxx11Ei
FN:3134,_ZN7testing8internal6String10FormatByteB5cxx11Eh
FN:3143,_ZN7testing8internal20StringStreamToStringEPNSt7__cxx1118basic_stringstreamIcSt11char_traitsIcESaIcEEE
FN:3162,_ZN7testing8internal17AppendUserMessageERKNSt7__cxx1112basic_stringIcSt11char_traitsIcESaIcEEERKNS_7MessageE
FN:3178,_ZN7testing10TestResultC2Ev
FN:3184,_ZN7testing10TestResultD2Ev
FN:3190,_ZNK7testing10TestResult17GetTestPartResultEi
FN:3199,_ZNK7testing10TestResult15GetTestPropertyEi
FN:3206,_ZN7testing10TestResult20ClearTestPartResultsEv
FN:3211,_ZN7testing10TestResult17AddTestPartResultERKNS_14TestPartResultE
FN:3218,_ZN7testing10TestResult14RecordPropertyERKNSt7__cxx1112basic_stringIcSt11char_traitsIcESaIcEEERKNS_12TestPropertyE
FN:3269,_ZN7testing13ArrayAsVectorILi6EEESt6vectorINSt7__cxx1112basic_stringIcSt11char_traitsIcESaIcEEESaIS7_EERAT__KPKc
FN:3269,_ZN7testing13ArrayAsVectorILi8EEESt6vectorINSt7__cxx1112basic_stringIcSt11char_traitsIcESaIcEEESaIS7_EERAT__KPKc
FN:3273,_ZN7testingL31GetReservedAttributesForElementERKNSt7__cxx1112basic_stringIcSt11char_traitsIcESaIcEEE
FN:3288,_ZN7testingL14FormatWordListERKSt6vectorINSt7__cxx1112basic_stringIcSt11char_traitsIcESaIcEEESaIS6_EE
FN:3302,_ZN7testing24ValidateTestPropertyNameERKNSt7__cxx1112basic_stringIcSt11char_traitsIcESaIcEEERKSt6vectorIS5_SaIS5_EE
FN:3316,_ZN7testing10TestResult20ValidateTestPropertyERKNSt7__cxx1112basic_stringIcSt11char_traitsIcESaIcEEERKNS_12TestPropertyE
FN:3323,_ZN7testing10TestResult5ClearEv
FN:3331,_ZNK7testing10TestResult6FailedEv
FN:3340,_ZN7testingL21TestPartFatallyFailedERKNS_14TestPartResultE
FN:3345,_ZNK7testing10TestResult15HasFatalFailureEv
FN:3350,_ZN7testingL24TestPartNonfatallyFailedERKNS_14TestPartResultE
FN:3355,_ZNK7testing10TestResult18HasNonfatalFailureEv
FN:3361,_ZNK7testing10TestResult16total_part_countEv
FN:3366,_ZNK7testing10TestResult19test_property_countEv
FN:3375,_ZN7testing4TestC2Ev
FN:3380,_ZN7testing4TestD0Ev
FN:3380,_ZN7testing4TestD2Ev
FN:3387,_ZN7testing4Test5SetUpEv
FN:3393,_ZN7testing4Test8TearDownEv
FN:3397,_ZN7testing4Test14RecordPropertyERKNSt7__cxx1112basic_stringIcSt11char_traitsIcESaIcEEES8_
FN:3402,_ZN7testing4Test14RecordPropertyERKNSt7__cxx1112basic_stringIcSt11char_traitsIcESaIcEEEi
FN:3410,_ZN7testing8internal30ReportFailureInUnknownLocationENS_14TestPartResult4TypeERKNSt7__cxx1112basic_stringIcSt11char_traitsIcESaIcEEE
FN:3429,_ZN7testing4Test19HasSameFixtureClassEv
FN:3512,_ZN7testing8internalL25FormatCxxExceptionMessageEPKcS2_
FN:3528,_ZN7testing8internal26GoogleTestFailureExceptionC2ERKNS_14TestPartResultE
FN:3543,_ZN7testing8internal38HandleSehExceptionsInMethodIfSupportedINS0_12UnitTestImplEbEET0_PT_MS4_FS3_vEPKc
FN:3543,_ZN7testing8internal38HandleSehExceptionsInMethodIfSupportedINS0_15TestFactoryBaseEPNS_4TestEEET0_PT_MS6_FS5_vEPKc
FN:3543,_ZN7testing8internal38HandleSehExceptionsInMethodIfSupportedINS_4TestEvEET0_PT_MS4_FS3_vEPKc
FN:3543,_ZN7testing8internal38HandleSehExceptionsInMethodIfSupportedINS_8TestCaseEvEET0_PT_MS4_FS3_vEPKc
FN:3570,_ZN7testing8internal35HandleExceptionsInMethodIfSupportedINS0_15TestFactoryBaseEPNS_4TestEEET0_PT_MS6_FS5_vEPKc
FN:3570,_ZN7testing8internal35HandleExceptionsInMethodIfSupportedINS0_12UnitTestImplEbEET0_PT_MS4_FS3_vEPKc
FN:3570,_ZN7testing8internal35HandleExceptionsInMethodIfSupportedINS_8TestCaseEvEET0_PT_MS4_FS3_vEPKc
FN:3570,_ZN7testing8internal35HandleExceptionsInMethodIfSupportedINS_4TestEvEET0_PT_MS4_FS3_vEPKc
FN:3625,_ZN7testing4Test3RunEv
FN:3647,_ZN7testing4Test15HasFatalFailureEv
FN:3652,_ZN7testing4Test18HasNonfatalFailureEv
FN:3661,_ZN7testing8TestInfoC2ERKNSt7__cxx1112basic_stringIcSt11char_traitsIcESaIcEEES8_PKcSA_PKvPNS_8internal15TestFactoryBaseE
FN:3679,_ZN7testing8TestInfoD2Ev
FN:3700,_ZN7testing8internal23MakeAndRegisterTestInfoEPKcS2_S2_S2_PKvPFvvES6_PNS0_15TestFactoryBaseE
FN:3717,_ZN7testing8internal25ReportInvalidTestCaseTypeEPKcS2_i
FN:3771,_ZN7testing8internal12UnitTestImpl26RegisterParameterizedTestsEv
FN:3784,_ZN7testing8TestInfo3RunEv
FN:3831,_ZNK7testing8TestCase21successful_test_countEv
FN:3836,_ZNK7testing8TestCase17failed_test_countEv
FN:3841,_ZNK7testing8TestCase30reportable_disabled_test_countEv
FN:3846,_ZNK7testing8TestCase19disabled_test_countEv
FN:3851,_ZNK7testing8TestCase21reportable_test_countEv
FN:3856,_ZNK7testing8TestCase17test_to_run_countEv
FN:3861,_ZNK7testing8TestCase16total_test_countEv
FN:3874,_ZN7testing8TestCaseC2EPKcS2_PFvvES4_
FN:3886,_ZN7testing8TestCaseD2Ev
FN:3886,_ZN7testing8TestCaseD0Ev
FN:3893,_ZNK7testing8TestCase11GetTestInfoEi
FN:3900,_ZN7testing8TestCase18GetMutableTestInfoEi
FN:3907,_ZN7testing8TestCase11AddTestInfoEPNS_8TestInfoE
FN:3913,_ZN7testing8TestCase3RunEv
FN:3941,_ZN7testing8TestCase11ClearResultEv
FN:3947,_ZN7testing8TestCase12ShuffleTestsEPNS_8internal6RandomE
FN:3952,_ZN7testing8TestCase14UnshuffleTestsEv
FN:3963,_ZN7testingL19FormatCountableNounEiPKcS1_
FN:3971,_ZN7testingL15FormatTestCountEi
FN:3976,_ZN7testingL19FormatTestCaseCountEi
FN:3984,_ZN7testingL26TestPartResultTypeToStringENS_14TestPartResult4TypeE
FN:4004,_ZN7testing8internalL27PrintTestPartResultToStringERKNS_14TestPartResultE
FN:4014,_ZN7testing8internalL19PrintTestPartResultERKNS_14TestPartResultE
FN:4057,_ZN7testing8internal16GetAnsiColorCodeENS0_10GTestColorE
FN:4069,_ZN7testing8internal14ShouldUseColorEb
FN:4105,_ZN7testing8internal13ColoredPrintfENS0_10GTestColorEPKcz
FN:4156,_ZN7testing8internal29PrintFullTestCommentIfPresentERKNS_8TestInfoE
FN:4176,_ZN7testing8internal27PrettyUnitTestResultPrinterD2Ev
FN:4176,_ZN7testing8internal27PrettyUnitTestResultPrinterD0Ev
FN:4178,_ZN7testing8internal27PrettyUnitTestResultPrinterC2Ev
FN:4179,_ZN7testing8internal27PrettyUnitTestResultPrinter13PrintTestNameEPKcS3_
FN:4184,_ZN7testing8internal27PrettyUnitTestResultPrinter18OnTestProgramStartERKNS_8UnitTestE
FN:4187,_ZN7testing8internal27PrettyUnitTestResultPrinter22OnEnvironmentsSetUpEndERKNS_8UnitTestE
FN:4194,_ZN7testing8internal27PrettyUnitTestResultPrinter25OnEnvironmentsTearDownEndERKNS_8UnitTestE
FN:4196,_ZN7testing8internal27PrettyUnitTestResultPrinter16OnTestProgramEndERKNS_8UnitTestE
FN:4203,_ZN7testing8internal27PrettyUnitTestResultPrinter20OnTestIterationStartERKNS_8UnitTestEi
FN:4238,_ZN7testing8internal27PrettyUnitTestResultPrinter24OnEnvironmentsSetUpStartERKNS_8UnitTestE
FN:4245,_ZN7testing8internal27PrettyUnitTestResultPrinter15OnTestCaseStartERKNS_8TestCaseE
FN:4258,_ZN7testing8internal27PrettyUnitTestResultPrinter11OnTestStartERKNS_8TestInfoE
FN:4266,_ZN7testing8internal27PrettyUnitTestResultPrinter16OnTestPartResultERKNS_14TestPartResultE
FN:4277,_ZN7testing8internal27PrettyUnitTestResultPrinter9OnTestEndERKNS_8TestInfoE
FN:4296,_ZN7testing8internal27PrettyUnitTestResultPrinter13OnTestCaseEndERKNS_8TestCaseE
FN:4308,_ZN7testing8internal27PrettyUnitTestResultPrinter27OnEnvironmentsTearDownStartERKNS_8UnitTestE
FN:4316,_ZN7testing8internal27PrettyUnitTestResultPrinter16PrintFailedTestsERKNS_8UnitTestE
FN:4340,_ZN7testing8internal27PrettyUnitTestResultPrinter18OnTestIterationEndERKNS_8UnitTestEi
FN:4385,_ZN7testing8internal17TestEventRepeaterC2Ev
FN:4392,_ZNK7testing8internal17TestEventRepeater18forwarding_enabledEv
FN:4393,_ZN7testing8internal17TestEventRepeater22set_forwarding_enabledEb
FN:4419,_ZN7testing8internal17TestEventRepeaterD2Ev
FN:4419,_ZN7testing8internal17TestEventRepeaterD0Ev
FN:4423,_ZN7testing8internal17TestEventRepeater6AppendEPNS_17TestEventListenerE
FN:4428,_ZN7testing8internal17TestEventRepeater7ReleaseEPNS_17TestEventListenerE
FN:4460,_ZN7testing8internal17TestEventRepeater18OnTestProgramStartERKNS_8UnitTestE
FN:4461,_ZN7testing8internal17TestEventRepeater24OnEnvironmentsSetUpStartERKNS_8UnitTestE
FN:4462,_ZN7testing8internal17TestEventRepeater15OnTestCaseStartERKNS_8TestCaseE
FN:4463,_ZN7testing8internal17TestEventRepeater11OnTestStartERKNS_8TestInfoE
FN:4464,_ZN7testing8internal17TestEventRepeater16OnTestPartResultERKNS_14TestPartResultE
FN:4465,_ZN7testing8internal17TestEventRepeater27OnEnvironmentsTearDownStartERKNS_8UnitTestE
FN:4466,_ZN7testing8internal17TestEventRepeater22OnEnvironmentsSetUpEndERKNS_8UnitTestE
FN:4467,_ZN7testing8internal17TestEventRepeater25OnEnvironmentsTearDownEndERKNS_8UnitTestE
FN:4468,_ZN7testing8internal17TestEventRepeater9OnTestEndERKNS_8TestInfoE
FN:4469,_ZN7testing8internal17TestEventRepeater13OnTestCaseEndERKNS_8TestCaseE
FN:4470,_ZN7testing8internal17TestEventRepeater16OnTestProgramEndERKNS_8UnitTestE
FN:4475,_ZN7testing8internal17TestEventRepeater20OnTestIterationStartERKNS_8UnitTestEi
FN:4484,_ZN7testing8internal17TestEventRepeater18OnTestIterationEndERKNS_8UnitTestEi
FN:4496,_ZN7testing8internal24XmlUnitTestResultPrinterD0Ev
FN:4496,_ZN7testing8internal24XmlUnitTestResultPrinterD2Ev
FN:4505,_ZN7testing8internal24XmlUnitTestResultPrinter24IsNormalizableWhitespaceEc
FN:4510,_ZN7testing8internal24XmlUnitTestResultPrinter19IsValidXmlCharacterEc
FN:4524,_ZN7testing8internal24XmlUnitTestResultPrinter18EscapeXmlAttributeERKNSt7__cxx1112basic_stringIcSt11char_traitsIcESaIcEEE
FN:4569,_ZN7testing8internal24XmlUnitTestResultPrinterC2EPKc
FN:4579,_ZN7testing8internal24XmlUnitTestResultPrinter18OnTestIterationEndERKNS_8UnitTestEi
FN:4623,_ZN7testing8internal24XmlUnitTestResultPrinter9EscapeXmlERKNSt7__cxx1112basic_stringIcSt11char_traitsIcESaIcEEEb
FN:4669,_ZN7testing8internal24XmlUnitTestResultPrinter26RemoveInvalidXmlCharactersERKNSt7__cxx1112basic_stringIcSt11char_traitsIcESaIcEEE
FN:4697,_ZN7testing8internal27FormatTimeInMillisAsSecondsB5cxx11Ex
FN:4705,_ZN7testing8internal32FormatEpochTimeInMillisAsIso8601B5cxx11Ex
FN:4730,_ZN7testing8internal24XmlUnitTestResultPrinter21OutputXmlCDataSectionEPSoPKc
FN:4749,_ZN7testing8internal24XmlUnitTestResultPrinter18OutputXmlAttributeEPSoRKNSt7__cxx1112basic_stringIcSt11char_traitsIcESaIcEEESA_SA_
FN:4767,_ZN7testing8internal24XmlUnitTestResultPrinter17OutputXmlTestInfoEPSoPKcRKNS_8TestInfoE
FN:4817,_ZN7testing8internal24XmlUnitTestResultPrinter16PrintXmlTestCaseEPSoRKNS_8TestCaseE
FN:4843,_ZN7testing8internal24XmlUnitTestResultPrinter16PrintXmlUnitTestEPSoRKNS_8UnitTestE
FN:4883,_ZN7testing8internal24XmlUnitTestResultPrinter29TestPropertiesAsXmlAttributesB5cxx11ERKNS_10TestResultE
FN:4903,_ZN7testing8internal17StreamingListener9UrlEncodeB5cxx11EPKc
FN:4922,_ZN7testing8internal17StreamingListener12SocketWriter14MakeConnectionEv
FN:4970,_ZN7testing8internal11ScopedTraceC2EPKciRKNS_7MessageE
FN:4981,_ZN7testing8internal11ScopedTraceD2Ev
FN:4996,_ZN7testing8internal18OsStackTraceGetter17CurrentStackTraceB5cxx11Eii
FN:5002,_ZN7testing8internal18OsStackTraceGetter16UponLeavingGTestEv
FN:5014,_ZN7testing8internal23ScopedPrematureExitFileC2EPKc
FN:5027,_ZN7testing8internal23ScopedPrematureExitFileD2Ev
FN:5043,_ZN7testing18TestEventListenersC2Ev
FN:5049,_ZN7testing18TestEventListenersD2Ev
FN:5055,_ZN7testing18TestEventListeners6AppendEPNS_17TestEventListenerE
FN:5062,_ZN7testing18TestEventListeners7ReleaseEPNS_17TestEventListenerE
FN:5072,_ZN7testing18TestEventListeners8repeaterEv
FN:5079,_ZN7testing18TestEventListeners23SetDefaultResultPrinterEPNS_17TestEventListenerE
FN:5095,_ZN7testing18TestEventListeners22SetDefaultXmlGeneratorEPNS_17TestEventListenerE
FN:5108,_ZNK7testing18TestEventListeners22EventForwardingEnabledEv
FN:5112,_ZN7testing18TestEventListeners23SuppressEventForwardingEv
FN:5125,_ZN7testing8UnitTest11GetInstanceEv
FN:5147,_ZNK7testing8UnitTest26successful_test_case_countEv
FN:5152,_ZNK7testing8UnitTest22failed_test_case_countEv
FN:5157,_ZNK7testing8UnitTest21total_test_case_countEv
FN:5163,_ZNK7testing8UnitTest22test_case_to_run_countEv
FN:5168,_ZNK7testing8UnitTest21successful_test_countEv
FN:5173,_ZNK7testing8UnitTest17failed_test_countEv
FN:5176,_ZNK7testing8UnitTest30reportable_disabled_test_countEv
FN:5181,_ZNK7testing8UnitTest19disabled_test_countEv
FN:5186,_ZNK7testing8UnitTest21reportable_test_countEv
FN:5191,_ZNK7testing8UnitTest16total_test_countEv
FN:5194,_ZNK7testing8UnitTest17test_to_run_countEv
FN:5198,_ZNK7testing8UnitTest15start_timestampEv
FN:5203,_ZNK7testing8UnitTest12elapsed_timeEv
FN:5208,_ZNK7testing8UnitTest6PassedEv
FN:5212,_ZNK7testing8UnitTest6FailedEv
FN:5216,_ZNK7testing8UnitTest11GetTestCaseEi
FN:5222,_ZNK7testing8UnitTest18ad_hoc_test_resultEv
FN:5228,_ZN7testing8UnitTest18GetMutableTestCaseEi
FN:5234,_ZN7testing8UnitTest9listenersEv
FN:5248,_ZN7testing8UnitTest14AddEnvironmentEPNS_11EnvironmentE
FN:5261,_ZN7testing8UnitTest17AddTestPartResultENS_14TestPartResult4TypeEPKciRKNSt7__cxx1112basic_stringIcSt11char_traitsIcESaIcEEESC_
FN:5328,_ZN7testing8UnitTest14RecordPropertyERKNSt7__cxx1112basic_stringIcSt11char_traitsIcESaIcEEES8_
FN:5338,_ZN7testing8UnitTest3RunEv
FN:5418,_ZNK7testing8UnitTest20original_working_dirEv
FN:5424,_ZNK7testing8UnitTest17current_test_caseEv
FN:5432,_ZNK7testing8UnitTest17current_test_infoEv
FN:5439,_ZNK7testing8UnitTest11random_seedEv
FN:5445,_ZN7testing8UnitTest27parameterized_test_registryEv
FN:5452,_ZN7testing8UnitTestC2Ev
FN:5457,_ZN7testing8UnitTestD2Ev
FN:5457,_ZN7testing8UnitTestD0Ev
FN:5463,_ZN7testing8UnitTest14PushGTestTraceERKNS_8internal9TraceInfoE
FN:5470,_ZN7testing8UnitTest13PopGTestTraceEv
FN:5478,_ZN7testing8internal12UnitTestImplC2EPNS_8UnitTestE
FN:5517,_ZN7testing8internal12UnitTestImplD2Ev
FN:5517,_ZN7testing8internal12UnitTestImplD0Ev
FN:5532,_ZN7testing8internal12UnitTestImpl14RecordPropertyERKNS_12TestPropertyE
FN:5552,_ZN7testing8internal12UnitTestImpl32SuppressTestEventsIfInSubprocessEv
FN:5560,_ZN7testing8internal12UnitTestImpl18ConfigureXmlOutputEv
FN:5575,_ZN7testing8internal12UnitTestImpl24ConfigureStreamingOutputEv
FN:5596,_ZN7testing8internal12UnitTestImpl19PostFlagParsingInitEv
FN:5630,_ZN7testing8internal14TestCaseNameIsC2ERKS1_
FN:5630,_ZN7testing8internal14TestCaseNameIsD2Ev
FN:5633,_ZN7testing8internal14TestCaseNameIsC2ERKNSt7__cxx1112basic_stringIcSt11char_traitsIcESaIcEEE
FN:5637,_ZNK7testing8internal14TestCaseNameIsclEPKNS_8TestCaseE
FN:5657,_ZN7testing8internal12UnitTestImpl11GetTestCaseEPKcS3_PFvvES5_
FN:5694,_ZN7testing8internalL16SetUpEnvironmentEPNS_11EnvironmentE
FN:5695,_ZN7testing8internalL19TearDownEnvironmentEPNS_11EnvironmentE
FN:5706,_ZN7testing8internal12UnitTestImpl11RunAllTestsEv
FN:5843,_ZN7testing8internal30WriteToShardStatusFileIfNeededEv
FN:5865,_ZN7testing8internal11ShouldShardEPKcS2_b
FN:5910,_ZN7testing8internal17Int32FromEnvOrDieEPKci
FN:5928,_ZN7testing8internal20ShouldRunTestOnShardEiii
FN:5939,_ZN7testing8internal12UnitTestImpl11FilterTestsENS1_18ReactionToShardingE
FN:5996,_ZN7testing8internalL14PrintOnOneLineEPKci
FN:6015,_ZN7testing8internal12UnitTestImpl23ListTestsMatchingFilterEv
FN:6057,_ZN7testing8internal12UnitTestImpl25set_os_stack_trace_getterEPNS0_27OsStackTraceGetterInterfaceE
FN:6068,_ZN7testing8internal12UnitTestImpl21os_stack_trace_getterEv
FN:6078,_ZN7testing8internal12UnitTestImpl19current_test_resultEv
FN:6085,_ZN7testing8internal12UnitTestImpl12ShuffleTestsEv
FN:6100,_ZN7testing8internal12UnitTestImpl14UnshuffleTestsEv
FN:6119,_ZN7testing8internal31GetCurrentOsStackTraceExceptTopB5cxx11EPNS_8UnitTestEi
FN:6132,_ZN7testing8internal6IsTrueEb
FN:6134,_ZN7testing8internal10AlwaysTrueEv
FN:6147,_ZN7testing8internal10SkipPrefixEPKcPS2_
FN:6161,_ZN7testing8internal14ParseFlagValueEPKcS2_b
FN:6199,_ZN7testing8internal13ParseBoolFlagEPKcS2_Pb
FN:6216,_ZN7testing8internal14ParseInt32FlagEPKcS2_Pi
FN:6233,_ZN7testing8internal15ParseStringFlagEPKcS2_PNSt7__cxx1112basic_stringIcSt11char_traitsIcESaIcEEE
FN:6251,_ZN7testing8internalL23HasGoogleTestFlagPrefixEPKc
FN:6271,_ZN7testing8internalL17PrintColorEncodedEPKc
FN:6373,_ZN7testing8internal28ParseGoogleTestFlagsOnlyImplIwEEvPiPPT_
FN:6373,_ZN7testing8internal28ParseGoogleTestFlagsOnlyImplIcEEvPiPPT_
FN:6443,_ZN7testing8internal24ParseGoogleTestFlagsOnlyEPiPPc
FN:6446,_ZN7testing8internal24ParseGoogleTestFlagsOnlyEPiPPw
FN:6455,_ZN7testing8internal18InitGoogleTestImplIwEEvPiPPT_
FN:6455,_ZN7testing8internal18InitGoogleTestImplIcEEvPiPPT_
FN:6489,_ZN7testing14InitGoogleTestEPiPPc
FN:6495,_ZN7testing14InitGoogleTestEPiPPw
FN:6624,_ZN7testing8internal16InDeathTestChildEv
FN:6643,_ZN7testing14ExitedWithCodeC2Ei
FN:6647,_ZNK7testing14ExitedWithCodeclEi
FN:6661,_ZN7testing14KilledBySignalC2Ei
FN:6665,_ZNK7testing14KilledBySignalclEi
FN:6676,_ZN7testing8internalL11ExitSummaryEi
FN:6702,_ZN7testing8internal20ExitedUnsuccessfullyEi
FN:6711,_ZN7testing8internalL22DeathTestThreadWarningEm
FN:6745,_ZN7testing8internal14DeathTestAbortERKNSt7__cxx1112basic_stringIcSt11char_traitsIcESaIcEEE
FN:6798,_ZN7testing8internal23GetLastErrnoDescriptionB5cxx11Ev
FN:6806,_ZN7testing8internalL21FailFromInternalErrorEi
FN:6829,_ZN7testing8internal9DeathTestC2Ev
FN:6839,_ZN7testing8internal9DeathTest6CreateEPKcPKNS0_2REES3_iPPS1_
FN:6845,_ZN7testing8internal9DeathTest11LastMessageEv
FN:6849,_ZN7testing8internal9DeathTest27set_last_death_test_messageERKNSt7__cxx1112basic_stringIcSt11char_traitsIcESaIcEEE
FN:6858,_ZN7testing8internal13DeathTestImplC2EPKcPKNS0_2REE
FN:6868,_ZN7testing8internal13DeathTestImplD2Ev
FN:6868,_ZN7testing8internal13DeathTestImplD0Ev
FN:6873,_ZNK7testing8internal13DeathTestImpl9statementEv
FN:6874,_ZNK7testing8internal13DeathTestImpl5regexEv
FN:6875,_ZNK7testing8internal13DeathTestImpl7spawnedEv
FN:6876,_ZN7testing8internal13DeathTestImpl11set_spawnedEb
FN:6877,_ZNK7testing8internal13DeathTestImpl6statusEv
FN:6878,_ZN7testing8internal13DeathTestImpl10set_statusEi
FN:6879,_ZNK7testing8internal13DeathTestImpl7outcomeEv
FN:6880,_ZN7testing8internal13DeathTestImpl11set_outcomeENS0_16DeathTestOutcomeE
FN:6881,_ZNK7testing8internal13DeathTestImpl7read_fdEv
FN:6882,_ZN7testing8internal13DeathTestImpl11set_read_fdEi
FN:6883,_ZNK7testing8internal13DeathTestImpl8write_fdEv
FN:6884,_ZN7testing8internal13DeathTestImpl12set_write_fdEi
FN:6919,_ZN7testing8internal13DeathTestImpl26ReadAndInterpretStatusByteEv
FN:6964,_ZN7testing8internal13DeathTestImpl5AbortENS0_9DeathTest11AbortReasonE
FN:6987,_ZN7testing8internalL21FormatDeathTestOutputERKNSt7__cxx1112basic_stringIcSt11char_traitsIcESaIcEEE
FN:7024,_ZN7testing8internal13DeathTestImpl6PassedEb
FN:7270,_ZN7testing8internal16ForkingDeathTestD2Ev
FN:7270,_ZN7testing8internal16ForkingDeathTestD0Ev
FN:7278,_ZN7testing8internal16ForkingDeathTest13set_child_pidEi
FN:7286,_ZN7testing8internal16ForkingDeathTestC2EPKcPKNS0_2REE
FN:7293,_ZN7testing8internal16ForkingDeathTest4WaitEv
FN:7307,_ZN7testing8internal15NoExecDeathTestD0Ev
FN:7307,_ZN7testing8internal15NoExecDeathTestD2Ev
FN:7309,_ZN7testing8internal15NoExecDeathTestC2EPKcPKNS0_2REE
FN:7316,_ZN7testing8internal15NoExecDeathTest10AssumeRoleEv
FN:7362,_ZN7testing8internal13ExecDeathTestD2Ev
FN:7362,_ZN7testing8internal13ExecDeathTestD0Ev
FN:7364,_ZN7testing8internal13ExecDeathTestC2EPKcPKNS0_2REES3_i
FN:7370,_ZN7testing8internal13ExecDeathTest32GetArgvsForDeathTestChildProcessB5cxx11Ev
FN:7383,_ZN7testing8internal9ArgumentsC2Ev
FN:7387,_ZN7testing8internal9ArgumentsD2Ev
FN:7393,_ZN7testing8internal9Arguments11AddArgumentEPKc
FN:7398,_ZN7testing8internal9Arguments12AddArgumentsINSt7__cxx1112basic_stringIcSt11char_traitsIcESaIcEEEEEvRKSt6vectorIT_SaISA_EE
FN:7405,_ZN7testing8internal9Arguments4ArgvEv
FN:7431,_ZN7testing8internal10GetEnvironEv
FN:7438,_ZN7testing8internalL22ExecDeathTestChildMainEPv
FN:7477,_ZN7testing8internal21StackLowerThanAddressEPKvPb
FN:7482,_ZN7testing8internal14StackGrowsDownEv
FN:7496,_ZN7testing8internalL23ExecDeathTestSpawnChildEPKPci
FN:7594,_ZN7testing8internal13ExecDeathTest10AssumeRoleEv
FN:7647,_ZN7testing8internal23DefaultDeathTestFactory6CreateEPKcPKNS0_2REES3_iPPNS0_9DeathTestE
FN:7702,_ZN7testing8internalL11SplitStringERKNSt7__cxx1112basic_stringIcSt11char_traitsIcESaIcEEEcPSt6vectorIS6_SaIS6_EE
FN:7790,_ZN7testing8internal29ParseInternalRunDeathTestFlagEv
FN:7926,_ZN7testing8internalL15IsPathSeparatorEc
FN:7935,_ZN7testing8internal8FilePath13GetCurrentDirEv
FN:7953,_ZNK7testing8internal8FilePath15RemoveExtensionEPKc
FN:7965,_ZNK7testing8internal8FilePath21FindLastPathSeparatorEv
FN:7984,_ZNK7testing8internal8FilePath19RemoveDirectoryNameEv
FN:7995,_ZNK7testing8internal8FilePath14RemoveFileNameEv
FN:8012,_ZN7testing8internal8FilePath12MakeFileNameERKS1_S3_iPKc
FN:8028,_ZN7testing8internal8FilePath11ConcatPathsERKS1_S3_
FN:8038,_ZNK7testing8internal8FilePath21FileOrDirectoryExistsEv
FN:8052,_ZNK7testing8internal8FilePath15DirectoryExistsEv
FN:8082,_ZNK7testing8internal8FilePath15IsRootDirectoryEv
FN:8094,_ZNK7testing8internal8FilePath14IsAbsolutePathEv
FN:8115,_ZN7testing8internal8FilePath22GenerateUniqueFileNameERKS1_S3_PKc
FN:8129,_ZNK7testing8internal8FilePath11IsDirectoryEv
FN:8137,_ZNK7testing8internal8FilePath28CreateDirectoriesRecursivelyEv
FN:8154,_ZNK7testing8internal8FilePath12CreateFolderEv
FN:8175,_ZNK7testing8internal8FilePath27RemoveTrailingPathSeparatorEv
FN:8185,_ZN7testing8internal8FilePath9NormalizeEv
FN:8338,_ZN7testing8internal14GetThreadCountEv
FN:8350,_ZN7testing8internal2RED2Ev
FN:8363,_ZN7testing8internal2RE9FullMatchEPKcRKS1_
FN:8372,_ZN7testing8internal2RE12PartialMatchEPKcRKS1_
FN:8380,_ZN7testing8internal2RE4InitEPKc
FN:8666,_ZN7testing8internal18FormatFileLocationB5cxx11EPKci
FN:8684,_ZN7testing8internal37FormatCompilerIndependentFileLocationB5cxx11EPKci
FN:8695,_ZN7testing8internal8GTestLogC2ENS0_16GTestLogSeverityEPKci
FN:8706,_ZN7testing8internal8GTestLogD2Ev
FN:8726,_ZN7testing8internal14CapturedStreamC2Ei
FN:8774,_ZN7testing8internal14CapturedStreamD2Ev
FN:8778,_ZN7testing8internal14CapturedStream17GetCapturedStringB5cxx11Ev
FN:8809,_ZN7testing8internal14CapturedStream11GetFileSizeEP8_IO_FILE
FN:8815,_ZN7testing8internal14CapturedStream14ReadEntireFileB5cxx11EP8_IO_FILE
FN:8845,_ZN7testing8internal13CaptureStreamEiPKcPPNS0_14CapturedStreamE
FN:8854,_ZN7testing8internal17GetCapturedStreamB5cxx11EPPNS0_14CapturedStreamE
FN:8864,_ZN7testing8internal13CaptureStdoutEv
FN:8869,_ZN7testing8internal13CaptureStderrEv
FN:8874,_ZN7testing8internal17GetCapturedStdoutB5cxx11Ev
FN:8879,_ZN7testing8internal17GetCapturedStderrB5cxx11Ev
FN:8893,_ZN7testing8internal18SetInjectableArgvsEPKSt6vectorINSt7__cxx1112basic_stringIcSt11char_traitsIcESaIcEEESaIS7_EE
FN:8899,_ZN7testing8internal18GetInjectableArgvsB5cxx11Ev
FN:8919,_ZN7testing8internalL12FlagToEnvVarEPKc
FN:8934,_ZN7testing8internal10ParseInt32ERKNS_7MessageEPKcPi
FN:8976,_ZN7testing8internal16BoolFromGTestEnvEPKcb
FN:8986,_ZN7testing8internal17Int32FromGTestEnvEPKci
FN:9008,_ZN7testing8internal18StringFromGTestEnvEPKcS2_
FN:9072,_ZN7testing12_GLOBAL__N_126PrintByteSegmentInObjectToEPKhmmPSo
FN:9091,_ZN7testing12_GLOBAL__N_124PrintBytesInObjectToImplEPKhmPSo
FN:9123,_ZN7testing9internal220PrintBytesInObjectToEPKhmPSo
FN:9146,_ZN7testing8internal16IsPrintableAsciiEw
FN:9155,_ZN7testing8internalL20PrintAsCharLiteralToIhhEENS0_10CharFormatET0_PSo
FN:9155,_ZN7testing8internalL20PrintAsCharLiteralToIhaEENS0_10CharFormatET0_PSo
FN:9155,_ZN7testing8internalL20PrintAsCharLiteralToIwwEENS0_10CharFormatET0_PSo
FN:9201,_ZN7testing8internalL22PrintAsStringLiteralToEwPSo
FN:9216,_ZN7testing8internalL22PrintAsStringLiteralToEcPSo
FN:9226,_ZN7testing8internal18PrintCharAndCodeToIhaEEvT0_PSo
FN:9226,_ZN7testing8internal18PrintCharAndCodeToIwwEEvT0_PSo
FN:9226,_ZN7testing8internal18PrintCharAndCodeToIhhEEvT0_PSo
FN:9250,_ZN7testing8internal7PrintToEhPSo
FN:9253,_ZN7testing8internal7PrintToEaPSo
FN:9259,_ZN7testing8internal7PrintToEwPSo
FN:9268,_ZN7testing8internalL20PrintCharsAsStringToIwEEvPKT_mPSo
FN:9268,_ZN7testing8internalL20PrintCharsAsStringToIcEEvPKT_mPSo
FN:9289,_ZN7testing8internalL23UniversalPrintCharArrayIwEEvPKT_mPSo
FN:9289,_ZN7testing8internalL23UniversalPrintCharArrayIcEEvPKT_mPSo
FN:9312,_ZN7testing8internal19UniversalPrintArrayEPKcmPSo
FN:9318,_ZN7testing8internal19UniversalPrintArrayEPKwmPSo
FN:9323,_ZN7testing8internal7PrintToEPKcPSo
FN:9340,_ZN7testing8internal7PrintToEPKwPSo
FN:9357,_ZN7testing8internal13PrintStringToERKNSt7__cxx1112basic_stringIcSt11char_traitsIcESaIcEEEPSo
FN:9369,_ZN7testing8internal17PrintWideStringToERKNSt7__cxx1112basic_stringIwSt11char_traitsIwESaIwEEEPSo
FN:9425,_ZN7testing14TestPartResult14ExtractSummaryB5cxx11EPKc
FN:9432,_ZN7testinglsERSoRKNS_14TestPartResultE
FN:9442,_ZN7testing19TestPartResultArray6AppendERKNS_14TestPartResultE
FN:9447,_ZNK7testing19TestPartResultArray17GetTestPartResultEi
FN:9457,_ZNK7testing19TestPartResultArray4sizeEv
FN:9463,_ZN7testing8internal24HasNewFatalFailureHelperC2Ev
FN:9470,_ZN7testing8internal24HasNewFatalFailureHelperD2Ev
FN:9470,_ZN7testing8internal24HasNewFatalFailureHelperD0Ev
FN:9475,_ZN7testing8internal24HasNewFatalFailureHelper20ReportTestPartResultERKNS_14TestPartResultE
FN:9524,_ZN7testing8internalL10SkipSpacesEPKc
FN:9533,_ZN7testing8internal19TypedTestCasePState25VerifyRegisteredTestNamesEPKciS3_
FN:9592,_GLOBAL__sub_I__ZN7testing8internal17kStackTraceMarkerE
FN:9592,_Z41__static_initialization_and_destruction_0ii
FNDA:0,_ZN7testing8internal21GetRandomSeedFromFlagEi
FNDA:0,_ZN7testing8internal17GetNextRandomSeedEi
FNDA:639,_ZN7testing8internal14GTestFlagSaverC2Ev
FNDA:639,_ZN7testing8internal14GTestFlagSaverD2Ev
FNDA:108,_ZN7testing8internal7CountIfISt6vectorIPNS_8TestInfoESaIS4_EEPFbPKS3_EEEiRKT_T0_
FNDA:1288,_ZN7testing8internal7CountIfISt6vectorINS_14TestPartResultESaIS3_EEPFbRKS3_EEEiRKT_T0_
FNDA:40,_ZN7testing8internal7CountIfISt6vectorIPNS_8TestCaseESaIS4_EEPFbPKS3_EEEiRKT_T0_
FNDA:10,_ZN7testing8internal7ForEachISt6vectorIPNS_11EnvironmentESaIS4_EEPFvS4_EEEvRKT_T0_
FNDA:0,_ZN7testing8internal7ForEachISt6vectorIPNS_17TestEventListenerESaIS4_EEPFvS4_EEEvRKT_T0_
FNDA:10,_ZN7testing8internal7ForEachISt6vectorIPNS_8TestInfoESaIS4_EEPFvS4_EEEvRKT_T0_
FNDA:10,_ZN7testing8internal7ForEachISt6vectorIPNS_8TestCaseESaIS4_EEPFvS4_EEEvRKT_T0_
FNDA:1039,_ZN7testing8internal12GetElementOrIiEET_RKSt6vectorIS2_SaIS2_EEiS2_
FNDA:0,_ZN7testing8internal12ShuffleRangeIiEEvPNS0_6RandomEiiPSt6vectorIT_SaIS5_EE
FNDA:0,_ZN7testing8internal7ShuffleIiEEvPNS0_6RandomEPSt6vectorIT_SaIS5_EE
FNDA:0,_ZN7testing8internalL6DeleteINS_11EnvironmentEEEvPT_
FNDA:0,_ZN7testing8internalL6DeleteINS_8TestCaseEEEvPT_
FNDA:0,_ZN7testing8internalL6DeleteINS_17TestEventListenerEEEvPT_
FNDA:0,_ZN7testing8internalL6DeleteINS_8TestInfoEEEvPT_
FNDA:0,_ZN7testing8internal17TestPropertyKeyIsC2ERKS1_
FNDA:0,_ZN7testing8internal17TestPropertyKeyIsD2Ev
FNDA:0,_ZN7testing8internal17TestPropertyKeyIsC2ERKNSt7__cxx1112basic_stringIcSt11char_traitsIcESaIcEEE
FNDA:0,_ZNK7testing8internal17TestPropertyKeyIsclERKNS_12TestPropertyE
FNDA:10,_ZN7testing8internal27OsStackTraceGetterInterfaceC2Ev
FNDA:0,_ZN7testing8internal27OsStackTraceGetterInterfaceD0Ev
FNDA:0,_ZN7testing8internal27OsStackTraceGetterInterfaceD2Ev
FNDA:0,_ZN7testing8internal18OsStackTraceGetterD0Ev
FNDA:0,_ZN7testing8internal18OsStackTraceGetterD2Ev
FNDA:10,_ZN7testing8internal18OsStackTraceGetterC2Ev
FNDA:0,_ZN7testing8internal9TraceInfoC2EOS1_
FNDA:0,_ZN7testing8internal9TraceInfoC2ERKS1_
FNDA:0,_ZN7testing8internal9TraceInfoD2Ev
FNDA:0,_ZN7testing8internal9TraceInfoC2Ev
FNDA:0,_ZN7testing8internal35DefaultGlobalTestPartResultReporterD0Ev
FNDA:0,_ZN7testing8internal35DefaultGlobalTestPartResultReporterD2Ev
FNDA:0,_ZN7testing8internal38DefaultPerThreadTestPartResultReporterD0Ev
FNDA:0,_ZN7testing8internal38DefaultPerThreadTestPartResultReporterD2Ev
FNDA:0,_ZNK7testing8internal12UnitTestImpl15start_timestampEv
FNDA:10,_ZNK7testing8internal12UnitTestImpl12elapsed_timeEv
FNDA:20,_ZNK7testing8internal12UnitTestImpl6PassedEv
FNDA:20,_ZNK7testing8internal12UnitTestImpl6FailedEv
FNDA:6,_ZNK7testing8internal12UnitTestImpl11GetTestCaseEi
FNDA:10,_ZN7testing8internal12UnitTestImpl18GetMutableTestCaseEi
FNDA:676,_ZN7testing8internal12UnitTestImpl9listenersEv
FNDA:8,_ZNK7testing8internal12UnitTestImpl18ad_hoc_test_resultEv
FNDA:639,_ZN7testing8internal12UnitTestImpl11AddTestInfoEPFvvES3_PNS_8TestInfoE
FNDA:0,_ZN7testing8internal12UnitTestImpl27parameterized_test_registryEv
FNDA:20,_ZN7testing8internal12UnitTestImpl21set_current_test_caseEPNS_8TestCaseE
FNDA:1278,_ZN7testing8internal12UnitTestImpl21set_current_test_infoEPNS_8TestInfoE
FNDA:10,_ZN7testing8internal12UnitTestImpl23ClearNonAdHocTestResultEv
FNDA:639,_ZNK7testing8internal12UnitTestImpl17current_test_caseEv
FNDA:639,_ZN7testing8internal12UnitTestImpl17current_test_infoEv
FNDA:0,_ZNK7testing8internal12UnitTestImpl17current_test_infoEv
FNDA:0,_ZN7testing8internal12UnitTestImpl12environmentsEv
FNDA:7,_ZN7testing8internal12UnitTestImpl17gtest_trace_stackEv
FNDA:10,_ZN7testing8internal12UnitTestImpl34InitDeathTestSubprocessControlInfoEv
FNDA:0,_ZNK7testing8internal12UnitTestImpl28internal_run_death_test_flagEv
FNDA:0,_ZN7testing8internal12UnitTestImpl18death_test_factoryEv
FNDA:0,_ZNK7testing8internal12UnitTestImpl11random_seedEv
FNDA:0,_ZN7testing8internal12UnitTestImpl6randomEv
FNDA:3225,_ZNK7testing8internal12UnitTestImpl16catch_exceptionsEv
FNDA:10,_ZN7testing8internal12UnitTestImpl20set_catch_exceptionsEb
FNDA:7089,_ZN7testing8internal15GetUnitTestImplEv
FNDA:0,_ZN7testing8internal18ParseNaturalNumberIiEEbRKNSt7__cxx1112basic_stringIcSt11char_traitsIcESaIcEEEPT_
FNDA:0,_ZN7testing8internal17StreamingListenerD0Ev
FNDA:0,_ZN7testing8internal17StreamingListenerD2Ev
FNDA:0,_ZN7testing8internal17StreamingListener20AbstractSocketWriterC2Ev
FNDA:0,_ZN7testing8internal17StreamingListener20AbstractSocketWriterD0Ev
FNDA:0,_ZN7testing8internal17StreamingListener20AbstractSocketWriterD2Ev
FNDA:0,_ZN7testing8internal17StreamingListener20AbstractSocketWriter15CloseConnectionEv
FNDA:0,_ZN7testing8internal17StreamingListener20AbstractSocketWriter6SendLnERKNSt7__cxx1112basic_stringIcSt11char_traitsIcESaIcEEE
FNDA:0,_ZN7testing8internal17StreamingListener12SocketWriterC2ERKNSt7__cxx1112basic_stringIcSt11char_traitsIcESaIcEEESA_
FNDA:0,_ZN7testing8internal17StreamingListener12SocketWriterD0Ev
FNDA:0,_ZN7testing8internal17StreamingListener12SocketWriterD2Ev
FNDA:0,_ZN7testing8internal17StreamingListener12SocketWriter4SendERKNSt7__cxx1112basic_stringIcSt11char_traitsIcESaIcEEE
FNDA:0,_ZN7testing8internal17StreamingListener12SocketWriter15CloseConnectionEv
FNDA:0,_ZN7testing8internal17StreamingListenerC2ERKNSt7__cxx1112basic_stringIcSt11char_traitsIcESaIcEEES9_
FNDA:0,_ZN7testing8internal17StreamingListener18OnTestProgramStartERKNS_8UnitTestE
FNDA:0,_ZN7testing8internal17StreamingListener16OnTestProgramEndERKNS_8UnitTestE
FNDA:0,_ZN7testing8internal17StreamingListener20OnTestIterationStartERKNS_8UnitTestEi
FNDA:0,_ZN7testing8internal17StreamingListener18OnTestIterationEndERKNS_8UnitTestEi
FNDA:0,_ZN7testing8internal17StreamingListener15OnTestCaseStartERKNS_8TestCaseE
FNDA:0,_ZN7testing8internal17StreamingListener13OnTestCaseEndERKNS_8TestCaseE
FNDA:0,_ZN7testing8internal17StreamingListener11OnTestStartERKNS_8TestInfoE
FNDA:0,_ZN7testing8internal17StreamingListener9OnTestEndERKNS_8TestInfoE
FNDA:0,_ZN7testing8internal17StreamingListener16OnTestPartResultERKNS_14TestPartResultE
FNDA:0,_ZN7testing8internal17StreamingListener6SendLnERKNSt7__cxx1112basic_stringIcSt11char_traitsIcESaIcEEE
FNDA:0,_ZN7testing8internal17StreamingListener5StartEv
FNDA:0,_ZN7testing8internal17StreamingListener10FormatBoolB5cxx11Eb
FNDA:10,_ZN7testingL16GetDefaultFilterEv
FNDA:0,_ZN7testing8internal6Random8GenerateEj
FNDA:10,_ZN7testing8internalL18GTestIsInitializedEv
FNDA:62,_ZN7testing8internalL19SumOverTestCaseListERKSt6vectorIPNS_8TestCaseESaIS3_EEMS2_KFivE
FNDA:0,_ZN7testing8internalL14TestCasePassedEPKNS_8TestCaseE
FNDA:20,_ZN7testing8internalL14TestCaseFailedEPKNS_8TestCaseE
FNDA:20,_ZN7testing8internalL17ShouldRunTestCaseEPKNS_8TestCaseE
FNDA:7,_ZN7testing8internal12AssertHelperC2ENS_14TestPartResult4TypeEPKciS5_
FNDA:7,_ZN7testing8internal12AssertHelperD2Ev
FNDA:7,_ZNK7testing8internal12AssertHelperaSERKNS_7MessageE
FNDA:0,_ZN7testing8internal24GetCurrentExecutableNameEv
FNDA:10,_ZN7testing8internal15UnitTestOptions15GetOutputFormatB5cxx11Ev
FNDA:0,_ZN7testing8internal15UnitTestOptions27GetAbsolutePathToOutputFileB5cxx11Ev
FNDA:51270,_ZN7testing8internal15UnitTestOptions20PatternMatchesStringEPKcS3_
FNDA:2566,_ZN7testing8internal15UnitTestOptions13MatchesFilterERKNSt7__cxx1112basic_stringIcSt11char_traitsIcESaIcEEEPKc
FNDA:639,_ZN7testing8internal15UnitTestOptions17FilterMatchesTestERKNSt7__cxx1112basic_stringIcSt11char_traitsIcESaIcEEES9_
FNDA:0,_ZN7testing32ScopedFakeTestPartResultReporterC2EPNS_19TestPartResultArrayE
FNDA:0,_ZN7testing32ScopedFakeTestPartResultReporterC2ENS0_13InterceptModeEPNS_19TestPartResultArrayE
FNDA:0,_ZN7testing32ScopedFakeTestPartResultReporter4InitEv
FNDA:0,_ZN7testing32ScopedFakeTestPartResultReporterD0Ev
FNDA:0,_ZN7testing32ScopedFakeTestPartResultReporterD2Ev
FNDA:0,_ZN7testing32ScopedFakeTestPartResultReporter20ReportTestPartResultERKNS_14TestPartResultE
FNDA:649,_ZN7testing8internal13GetTestTypeIdEv
FNDA:0,_ZN7testing8internal13HasOneFailureEPKcS2_S2_RKNS_19TestPartResultArrayENS_14TestPartResult4TypeERKNSt7__cxx1112basic_stringIcSt11char_traitsIcESaIcEEE
FNDA:0,_ZN7testing8internal20SingleFailureCheckerC2EPKNS_19TestPartResultArrayENS_14TestPartResult4TypeERKNSt7__cxx1112basic_stringIcSt11char_traitsIcESaIcEEE
FNDA:0,_ZN7testing8internal20SingleFailureCheckerD2Ev
FNDA:10,_ZN7testing8internal35DefaultGlobalTestPartResultReporterC2EPNS0_12UnitTestImplE
FNDA:7,_ZN7testing8internal35DefaultGlobalTestPartResultReporter20ReportTestPartResultERKNS_14TestPartResultE
FNDA:10,_ZN7testing8internal38DefaultPerThreadTestPartResultReporterC2EPNS0_12UnitTestImplE
FNDA:7,_ZN7testing8internal38DefaultPerThreadTestPartResultReporter20ReportTestPartResultERKNS_14TestPartResultE
FNDA:7,_ZN7testing8internal12UnitTestImpl31GetGlobalTestPartResultReporterEv
FNDA:0,_ZN7testing8internal12UnitTestImpl31SetGlobalTestPartResultReporterEPNS_31TestPartResultReporterInterfaceE
FNDA:7,_ZN7testing8internal12UnitTestImpl41GetTestPartResultReporterForCurrentThreadEv
FNDA:0,_ZN7testing8internal12UnitTestImpl41SetTestPartResultReporterForCurrentThreadEPNS_31TestPartResultReporterInterfaceE
FNDA:0,_ZNK7testing8internal12UnitTestImpl26successful_test_case_countEv
FNDA:20,_ZNK7testing8internal12UnitTestImpl22failed_test_case_countEv
FNDA:32,_ZNK7testing8internal12UnitTestImpl21total_test_case_countEv
FNDA:20,_ZNK7testing8internal12UnitTestImpl22test_case_to_run_countEv
FNDA:10,_ZNK7testing8internal12UnitTestImpl21successful_test_countEv
FNDA:22,_ZNK7testing8internal12UnitTestImpl17failed_test_countEv
FNDA:10,_ZNK7testing8internal12UnitTestImpl30reportable_disabled_test_countEv
FNDA:0,_ZNK7testing8internal12UnitTestImpl19disabled_test_countEv
FNDA:0,_ZNK7testing8internal12UnitTestImpl21reportable_test_countEv
FNDA:0,_ZNK7testing8internal12UnitTestImpl16total_test_countEv
FNDA:20,_ZNK7testing8internal12UnitTestImpl17test_to_run_countEv
FNDA:7,_ZN7testing8internal12UnitTestImpl28CurrentOsStackTraceExceptTopB5cxx11Ei
FNDA:1328,_ZN7testing8internal15GetTimeInMillisEv
FNDA:48,_ZN7testing8internal6String13CStringEqualsEPKcS3_
FNDA:0,_ZN7testing8internalL24StreamWideCharsToMessageEPKwmPNS_7MessageE
FNDA:1097,_ZN7testing7MessageC2Ev
FNDA:0,_ZN7testing7MessagelsEPKw
FNDA:0,_ZN7testing7MessagelsEPw
FNDA:0,_ZN7testing7MessagelsERKNSt7__cxx1112basic_stringIwSt11char_traitsIwESaIwEEE
FNDA:1097,_ZNK7testing7Message9GetStringB5cxx11Ev
FNDA:7,_ZN7testing15AssertionResultC2ERKS0_
FNDA:0,_ZNK7testing15AssertionResultntEv
FNDA:300503,_ZN7testing16AssertionSuccessEv
FNDA:7,_ZN7testing16AssertionFailureEv
FNDA:0,_ZN7testing16AssertionFailureERKNS_7MessageE
FNDA:7,_ZN7testing8internal9EqFailureEPKcS2_RKNSt7__cxx1112basic_stringIcSt11char_traitsIcESaIcEEESA_b
FNDA:0,_ZN7testing8internal30GetBoolAssertionFailureMessageB5cxx11ERKNS_15AssertionResultEPKcS5_S5_
FNDA:0,_ZN7testing8internal20DoubleNearPredFormatEPKcS2_S2_ddd
FNDA:0,_ZN7testing8internal15FloatingPointLEIdEENS_15AssertionResultEPKcS4_T_S5_
FNDA:0,_ZN7testing8internal15FloatingPointLEIfEENS_15AssertionResultEPKcS4_T_S5_
FNDA:0,_ZN7testing7FloatLEEPKcS1_ff
FNDA:0,_ZN7testing8DoubleLEEPKcS1_dd
FNDA:0,_ZN7testing8internal11CmpHelperEQEPKcS2_xx
FNDA:0,_ZN7testing8internal11CmpHelperNEEPKcS2_xx
FNDA:0,_ZN7testing8internal11CmpHelperLEEPKcS2_xx
FNDA:0,_ZN7testing8internal11CmpHelperLTEPKcS2_xx
FNDA:0,_ZN7testing8internal11CmpHelperGEEPKcS2_xx
FNDA:0,_ZN7testing8internal11CmpHelperGTEPKcS2_xx
FNDA:0,_ZN7testing8internal14CmpHelperSTREQEPKcS2_S2_S2_
FNDA:0,_ZN7testing8internal18CmpHelperSTRCASEEQEPKcS2_S2_S2_
FNDA:0,_ZN7testing8internal14CmpHelperSTRNEEPKcS2_S2_S2_
FNDA:0,_ZN7testing8internal18CmpHelperSTRCASENEEPKcS2_S2_S2_
FNDA:0,_ZN7testing12_GLOBAL__N_115IsSubstringPredEPKcS2_
FNDA:0,_ZN7testing12_GLOBAL__N_115IsSubstringPredEPKwS2_
FNDA:0,_ZN7testing12_GLOBAL__N_115IsSubstringPredINSt7__cxx1112basic_stringIwSt11char_traitsIwESaIwEEEEEbRKT_SA_
FNDA:0,_ZN7testing12_GLOBAL__N_115IsSubstringPredINSt7__cxx1112basic_stringIcSt11char_traitsIcESaIcEEEEEbRKT_SA_
FNDA:0,_ZN7testing12_GLOBAL__N_115IsSubstringImplINSt7__cxx1112basic_stringIwSt11char_traitsIwESaIwEEEEENS_15AssertionResultEbPKcSA_RKT_SD_
FNDA:0,_ZN7testing12_GLOBAL__N_115IsSubstringImplINSt7__cxx1112basic_stringIcSt11char_traitsIcESaIcEEEEENS_15AssertionResultEbPKcSA_RKT_SD_
FNDA:0,_ZN7testing12_GLOBAL__N_115IsSubstringImplIPKwEENS_15AssertionResultEbPKcS6_RKT_S9_
FNDA:0,_ZN7testing12_GLOBAL__N_115IsSubstringImplIPKcEENS_15AssertionResultEbS3_S3_RKT_S7_
FNDA:0,_ZN7testing11IsSubstringEPKcS1_S1_S1_
FNDA:0,_ZN7testing11IsSubstringEPKcS1_PKwS3_
FNDA:0,_ZN7testing14IsNotSubstringEPKcS1_S1_S1_
FNDA:0,_ZN7testing14IsNotSubstringEPKcS1_PKwS3_
FNDA:0,_ZN7testing11IsSubstringEPKcS1_RKNSt7__cxx1112basic_stringIcSt11char_traitsIcESaIcEEES9_
FNDA:0,_ZN7testing14IsNotSubstringEPKcS1_RKNSt7__cxx1112basic_stringIcSt11char_traitsIcESaIcEEES9_
FNDA:0,_ZN7testing11IsSubstringEPKcS1_RKNSt7__cxx1112basic_stringIwSt11char_traitsIwESaIwEEES9_
FNDA:0,_ZN7testing14IsNotSubstringEPKcS1_RKNSt7__cxx1112basic_stringIwSt11char_traitsIwESaIwEEES9_
FNDA:0,_ZN7testing8internal11ChopLowBitsEPji
FNDA:0,_ZN7testing8internal15CodePointToUtf8B5cxx11Ej
FNDA:0,_ZN7testing8internal20IsUtf16SurrogatePairEww
FNDA:0,_ZN7testing8internal37CreateCodePointFromUtf16SurrogatePairEww
FNDA:0,_ZN7testing8internal16WideStringToUtf8B5cxx11EPKwi
FNDA:0,_ZN7testing8internal6String15ShowWideCStringB5cxx11EPKw
FNDA:0,_ZN7testing8internal6String17WideCStringEqualsEPKwS3_
FNDA:0,_ZN7testing8internal14CmpHelperSTREQEPKcS2_PKwS4_
FNDA:0,_ZN7testing8internal14CmpHelperSTRNEEPKcS2_PKwS4_
FNDA:10,_ZN7testing8internal6String28CaseInsensitiveCStringEqualsEPKcS3_
FNDA:0,_ZN7testing8internal6String32CaseInsensitiveWideCStringEqualsEPKwS3_
FNDA:0,_ZN7testing8internal6String23EndsWithCaseInsensitiveERKNSt7__cxx1112basic_stringIcSt11char_traitsIcESaIcEEES9_
FNDA:0,_ZN7testing8internal6String15FormatIntWidth2B5cxx11Ei
FNDA:0,_ZN7testing8internal6String12FormatHexIntB5cxx11Ei
FNDA:0,_ZN7testing8internal6String10FormatByteB5cxx11Eh
FNDA:1097,_ZN7testing8internal20StringStreamToStringEPNSt7__cxx1118basic_stringstreamIcSt11char_traitsIcESaIcEEE
FNDA:7,_ZN7testing8internal17AppendUserMessageERKNSt7__cxx1112basic_stringIcSt11char_traitsIcESaIcEEERKNS_7MessageE
FNDA:659,_ZN7testing10TestResultC2Ev
FNDA:0,_ZN7testing10TestResultD2Ev
FNDA:60,_ZNK7testing10TestResult17GetTestPartResultEi
FNDA:0,_ZNK7testing10TestResult15GetTestPropertyEi
FNDA:0,_ZN7testing10TestResult20ClearTestPartResultsEv
FNDA:7,_ZN7testing10TestResult17AddTestPartResultERKNS_14TestPartResultE
FNDA:0,_ZN7testing10TestResult14RecordPropertyERKNSt7__cxx1112basic_stringIcSt11char_traitsIcESaIcEEERKNS_12TestPropertyE
FNDA:0,_ZN7testing13ArrayAsVectorILi6EEESt6vectorINSt7__cxx1112basic_stringIcSt11char_traitsIcESaIcEEESaIS7_EERAT__KPKc
FNDA:0,_ZN7testing13ArrayAsVectorILi8EEESt6vectorINSt7__cxx1112basic_stringIcSt11char_traitsIcESaIcEEESaIS7_EERAT__KPKc
FNDA:0,_ZN7testingL31GetReservedAttributesForElementERKNSt7__cxx1112basic_stringIcSt11char_traitsIcESaIcEEE
FNDA:0,_ZN7testingL14FormatWordListERKSt6vectorINSt7__cxx1112basic_stringIcSt11char_traitsIcESaIcEEESaIS6_EE
FNDA:0,_ZN7testing24ValidateTestPropertyNameERKNSt7__cxx1112basic_stringIcSt11char_traitsIcESaIcEEERKSt6vectorIS5_SaIS5_EE
FNDA:0,_ZN7testing10TestResult20ValidateTestPropertyERKNSt7__cxx1112basic_stringIcSt11char_traitsIcESaIcEEERKNS_12TestPropertyE
FNDA:649,_ZN7testing10TestResult5ClearEv
FNDA:5378,_ZNK7testing10TestResult6FailedEv
FNDA:0,_ZN7testingL21TestPartFatallyFailedERKNS_14TestPartResultE
FNDA:1288,_ZNK7testing10TestResult15HasFatalFailureEv
FNDA:0,_ZN7testingL24TestPartNonfatallyFailedERKNS_14TestPartResultE
FNDA:0,_ZNK7testing10TestResult18HasNonfatalFailureEv
FNDA:5438,_ZNK7testing10TestResult16total_part_countEv
FNDA:0,_ZNK7testing10TestResult19test_property_countEv
FNDA:639,_ZN7testing4TestC2Ev
FNDA:0,_ZN7testing4TestD0Ev
FNDA:639,_ZN7testing4TestD2Ev
FNDA:639,_ZN7testing4Test5SetUpEv
FNDA:639,_ZN7testing4Test8TearDownEv
FNDA:0,_ZN7testing4Test14RecordPropertyERKNSt7__cxx1112basic_stringIcSt11char_traitsIcESaIcEEES8_
FNDA:0,_ZN7testing4Test14RecordPropertyERKNSt7__cxx1112basic_stringIcSt11char_traitsIcESaIcEEEi
FNDA:0,_ZN7testing8internal30ReportFailureInUnknownLocationENS_14TestPartResult4TypeERKNSt7__cxx1112basic_stringIcSt11char_traitsIcESaIcEEE
FNDA:639,_ZN7testing4Test19HasSameFixtureClassEv
FNDA:0,_ZN7testing8internalL25FormatCxxExceptionMessageEPKcS2_
FNDA:0,_ZN7testing8internal26GoogleTestFailureExceptionC2ERKNS_14TestPartResultE
FNDA:10,_ZN7testing8internal38HandleSehExceptionsInMethodIfSupportedINS0_12UnitTestImplEbEET0_PT_MS4_FS3_vEPKc
FNDA:20,_ZN7testing8internal38HandleSehExceptionsInMethodIfSupportedINS_8TestCaseEvEET0_PT_MS4_FS3_vEPKc
FNDA:639,_ZN7testing8internal38HandleSehExceptionsInMethodIfSupportedINS0_15TestFactoryBaseEPNS_4TestEEET0_PT_MS6_FS5_vEPKc
FNDA:2556,_ZN7testing8internal38HandleSehExceptionsInMethodIfSupportedINS_4TestEvEET0_PT_MS4_FS3_vEPKc
FNDA:10,_ZN7testing8internal35HandleExceptionsInMethodIfSupportedINS0_12UnitTestImplEbEET0_PT_MS4_FS3_vEPKc
FNDA:20,_ZN7testing8internal35HandleExceptionsInMethodIfSupportedINS_8TestCaseEvEET0_PT_MS4_FS3_vEPKc
FNDA:639,_ZN7testing8internal35HandleExceptionsInMethodIfSupportedINS0_15TestFactoryBaseEPNS_4TestEEET0_PT_MS6_FS5_vEPKc
FNDA:2556,_ZN7testing8internal35HandleExceptionsInMethodIfSupportedINS_4TestEvEET0_PT_MS4_FS3_vEPKc
FNDA:639,_ZN7testing4Test3RunEv
FNDA:1288,_ZN7testing4Test15HasFatalFailureEv
FNDA:0,_ZN7testing4Test18HasNonfatalFailureEv
FNDA:639,_ZN7testing8TestInfoC2ERKNSt7__cxx1112basic_stringIcSt11char_traitsIcESaIcEEES8_PKcSA_PKvPNS_8internal15TestFactoryBaseE
FNDA:0,_ZN7testing8TestInfoD2Ev
FNDA:639,_ZN7testing8internal23MakeAndRegisterTestInfoEPKcS2_S2_S2_PKvPFvvES6_PNS0_15TestFactoryBaseE
FNDA:0,_ZN7testing8internal25ReportInvalidTestCaseTypeEPKcS2_i
FNDA:10,_ZN7testing8internal12UnitTestImpl26RegisterParameterizedTestsEv
FNDA:639,_ZN7testing8TestInfo3RunEv
FNDA:10,_ZNK7testing8TestCase21successful_test_countEv
FNDA:48,_ZNK7testing8TestCase17failed_test_countEv
FNDA:10,_ZNK7testing8TestCase30reportable_disabled_test_countEv
FNDA:0,_ZNK7testing8TestCase19disabled_test_countEv
FNDA:0,_ZNK7testing8TestCase21reportable_test_countEv
FNDA:40,_ZNK7testing8TestCase17test_to_run_countEv
FNDA:1039,_ZNK7testing8TestCase16total_test_countEv
FNDA:10,_ZN7testing8TestCaseC2EPKcS2_PFvvES4_
FNDA:0,_ZN7testing8TestCaseD0Ev
FNDA:0,_ZN7testing8TestCaseD2Ev
FNDA:384,_ZNK7testing8TestCase11GetTestInfoEi
FNDA:639,_ZN7testing8TestCase18GetMutableTestInfoEi
FNDA:639,_ZN7testing8TestCase11AddTestInfoEPNS_8TestInfoE
FNDA:10,_ZN7testing8TestCase3RunEv
FNDA:10,_ZN7testing8TestCase11ClearResultEv
FNDA:0,_ZN7testing8TestCase12ShuffleTestsEPNS_8internal6RandomE
FNDA:10,_ZN7testing8TestCase14UnshuffleTestsEv
FNDA:76,_ZN7testingL19FormatCountableNounEiPKcS1_
FNDA:36,_ZN7testingL15FormatTestCountEi
FNDA:20,_ZN7testingL19FormatTestCaseCountEi
FNDA:7,_ZN7testingL26TestPartResultTypeToStringENS_14TestPartResult4TypeE
FNDA:7,_ZN7testing8internalL27PrintTestPartResultToStringERKNS_14TestPartResultE
FNDA:7,_ZN7testing8internalL19PrintTestPartResultERKNS_14TestPartResultE
FNDA:1086,_ZN7testing8internal16GetAnsiColorCodeENS0_10GTestColorE
FNDA:10,_ZN7testing8internal14ShouldUseColorEb
FNDA:1360,_ZN7testing8internal13ColoredPrintfENS0_10GTestColorEPKcz
FNDA:12,_ZN7testing8internal29PrintFullTestCommentIfPresentERKNS_8TestInfoE
FNDA:0,_ZN7testing8internal27PrettyUnitTestResultPrinterD0Ev
FNDA:0,_ZN7testing8internal27PrettyUnitTestResultPrinterD2Ev
FNDA:10,_ZN7testing8internal27PrettyUnitTestResultPrinterC2Ev
FNDA:1278,_ZN7testing8internal27PrettyUnitTestResultPrinter13PrintTestNameEPKcS3_
FNDA:10,_ZN7testing8internal27PrettyUnitTestResultPrinter18OnTestProgramStartERKNS_8UnitTestE
FNDA:10,_ZN7testing8internal27PrettyUnitTestResultPrinter22OnEnvironmentsSetUpEndERKNS_8UnitTestE
FNDA:10,_ZN7testing8internal27PrettyUnitTestResultPrinter25OnEnvironmentsTearDownEndERKNS_8UnitTestE
FNDA:10,_ZN7testing8internal27PrettyUnitTestResultPrinter16OnTestProgramEndERKNS_8UnitTestE
FNDA:10,_ZN7testing8internal27PrettyUnitTestResultPrinter20OnTestIterationStartERKNS_8UnitTestEi
FNDA:10,_ZN7testing8internal27PrettyUnitTestResultPrinter24OnEnvironmentsSetUpStartERKNS_8UnitTestE
FNDA:10,_ZN7testing8internal27PrettyUnitTestResultPrinter15OnTestCaseStartERKNS_8TestCaseE
FNDA:639,_ZN7testing8internal27PrettyUnitTestResultPrinter11OnTestStartERKNS_8TestInfoE
FNDA:7,_ZN7testing8internal27PrettyUnitTestResultPrinter16OnTestPartResultERKNS_14TestPartResultE
FNDA:639,_ZN7testing8internal27PrettyUnitTestResultPrinter9OnTestEndERKNS_8TestInfoE
FNDA:10,_ZN7testing8internal27PrettyUnitTestResultPrinter13OnTestCaseEndERKNS_8TestCaseE
FNDA:10,_ZN7testing8internal27PrettyUnitTestResultPrinter27OnEnvironmentsTearDownStartERKNS_8UnitTestE
FNDA:6,_ZN7testing8internal27PrettyUnitTestResultPrinter16PrintFailedTestsERKNS_8UnitTestE
FNDA:10,_ZN7testing8internal27PrettyUnitTestResultPrinter18OnTestIterationEndERKNS_8UnitTestEi
FNDA:10,_ZN7testing8internal17TestEventRepeaterC2Ev
FNDA:0,_ZNK7testing8internal17TestEventRepeater18forwarding_enabledEv
FNDA:0,_ZN7testing8internal17TestEventRepeater22set_forwarding_enabledEb
FNDA:0,_ZN7testing8internal17TestEventRepeaterD0Ev
FNDA:0,_ZN7testing8internal17TestEventRepeaterD2Ev
FNDA:10,_ZN7testing8internal17TestEventRepeater6AppendEPNS_17TestEventListenerE
FNDA:10,_ZN7testing8internal17TestEventRepeater7ReleaseEPNS_17TestEventListenerE
FNDA:10,_ZN7testing8internal17TestEventRepeater18OnTestProgramStartERKNS_8UnitTestE
FNDA:10,_ZN7testing8internal17TestEventRepeater24OnEnvironmentsSetUpStartERKNS_8UnitTestE
FNDA:10,_ZN7testing8internal17TestEventRepeater15OnTestCaseStartERKNS_8TestCaseE
FNDA:639,_ZN7testing8internal17TestEventRepeater11OnTestStartERKNS_8TestInfoE
FNDA:7,_ZN7testing8internal17TestEventRepeater16OnTestPartResultERKNS_14TestPartResultE
FNDA:10,_ZN7testing8internal17TestEventRepeater27OnEnvironmentsTearDownStartERKNS_8UnitTestE
FNDA:10,_ZN7testing8internal17TestEventRepeater22OnEnvironmentsSetUpEndERKNS_8UnitTestE
FNDA:10,_ZN7testing8internal17TestEventRepeater25OnEnvironmentsTearDownEndERKNS_8UnitTestE
FNDA:639,_ZN7testing8internal17TestEventRepeater9OnTestEndERKNS_8TestInfoE
FNDA:10,_ZN7testing8internal17TestEventRepeater13OnTestCaseEndERKNS_8TestCaseE
FNDA:10,_ZN7testing8internal17TestEventRepeater16OnTestProgramEndERKNS_8UnitTestE
FNDA:10,_ZN7testing8internal17TestEventRepeater20OnTestIterationStartERKNS_8UnitTestEi
FNDA:10,_ZN7testing8internal17TestEventRepeater18OnTestIterationEndERKNS_8UnitTestEi
FNDA:0,_ZN7testing8internal24XmlUnitTestResultPrinterD0Ev
FNDA:0,_ZN7testing8internal24XmlUnitTestResultPrinterD2Ev
FNDA:0,_ZN7testing8internal24XmlUnitTestResultPrinter24IsNormalizableWhitespaceEc
FNDA:0,_ZN7testing8internal24XmlUnitTestResultPrinter19IsValidXmlCharacterEc
FNDA:0,_ZN7testing8internal24XmlUnitTestResultPrinter18EscapeXmlAttributeERKNSt7__cxx1112basic_stringIcSt11char_traitsIcESaIcEEE
FNDA:0,_ZN7testing8internal24XmlUnitTestResultPrinterC2EPKc
FNDA:0,_ZN7testing8internal24XmlUnitTestResultPrinter18OnTestIterationEndERKNS_8UnitTestEi
FNDA:0,_ZN7testing8internal24XmlUnitTestResultPrinter9EscapeXmlERKNSt7__cxx1112basic_stringIcSt11char_traitsIcESaIcEEEb
FNDA:0,_ZN7testing8internal24XmlUnitTestResultPrinter26RemoveInvalidXmlCharactersERKNSt7__cxx1112basic_stringIcSt11char_traitsIcESaIcEEE
FNDA:0,_ZN7testing8internal27FormatTimeInMillisAsSecondsB5cxx11Ex
FNDA:0,_ZN7testing8internal32FormatEpochTimeInMillisAsIso8601B5cxx11Ex
FNDA:0,_ZN7testing8internal24XmlUnitTestResultPrinter21OutputXmlCDataSectionEPSoPKc
FNDA:0,_ZN7testing8internal24XmlUnitTestResultPrinter18OutputXmlAttributeEPSoRKNSt7__cxx1112basic_stringIcSt11char_traitsIcESaIcEEESA_SA_
FNDA:0,_ZN7testing8internal24XmlUnitTestResultPrinter17OutputXmlTestInfoEPSoPKcRKNS_8TestInfoE
FNDA:0,_ZN7testing8internal24XmlUnitTestResultPrinter16PrintXmlTestCaseEPSoRKNS_8TestCaseE
FNDA:0,_ZN7testing8internal24XmlUnitTestResultPrinter16PrintXmlUnitTestEPSoRKNS_8UnitTestE
FNDA:0,_ZN7testing8internal24XmlUnitTestResultPrinter29TestPropertiesAsXmlAttributesB5cxx11ERKNS_10TestResultE
FNDA:0,_ZN7testing8internal17StreamingListener9UrlEncodeB5cxx11EPKc
FNDA:0,_ZN7testing8internal17StreamingListener12SocketWriter14MakeConnectionEv
FNDA:0,_ZN7testing8internal11ScopedTraceC2EPKciRKNS_7MessageE
FNDA:0,_ZN7testing8internal11ScopedTraceD2Ev
FNDA:0,_ZN7testing8internal18OsStackTraceGetter17CurrentStackTraceB5cxx11Eii
FNDA:3215,_ZN7testing8internal18OsStackTraceGetter16UponLeavingGTestEv
FNDA:10,_ZN7testing8internal23ScopedPrematureExitFileC2EPKc
FNDA:10,_ZN7testing8internal23ScopedPrematureExitFileD2Ev
FNDA:10,_ZN7testing18TestEventListenersC2Ev
FNDA:0,_ZN7testing18TestEventListenersD2Ev
FNDA:10,_ZN7testing18TestEventListeners6AppendEPNS_17TestEventListenerE
FNDA:10,_ZN7testing18TestEventListeners7ReleaseEPNS_17TestEventListenerE
FNDA:666,_ZN7testing18TestEventListeners8repeaterEv
FNDA:10,_ZN7testing18TestEventListeners23SetDefaultResultPrinterEPNS_17TestEventListenerE
FNDA:0,_ZN7testing18TestEventListeners22SetDefaultXmlGeneratorEPNS_17TestEventListenerE
FNDA:0,_ZNK7testing18TestEventListeners22EventForwardingEnabledEv
FNDA:0,_ZN7testing18TestEventListeners23SuppressEventForwardingEv
FNDA:7762,_ZN7testing8UnitTest11GetInstanceEv
FNDA:0,_ZNK7testing8UnitTest26successful_test_case_countEv
FNDA:0,_ZNK7testing8UnitTest22failed_test_case_countEv
FNDA:12,_ZNK7testing8UnitTest21total_test_case_countEv
FNDA:20,_ZNK7testing8UnitTest22test_case_to_run_countEv
FNDA:10,_ZNK7testing8UnitTest21successful_test_countEv
FNDA:22,_ZNK7testing8UnitTest17failed_test_countEv
FNDA:10,_ZNK7testing8UnitTest30reportable_disabled_test_countEv
FNDA:0,_ZNK7testing8UnitTest19disabled_test_countEv
FNDA:0,_ZNK7testing8UnitTest21reportable_test_countEv
FNDA:0,_ZNK7testing8UnitTest16total_test_countEv
FNDA:20,_ZNK7testing8UnitTest17test_to_run_countEv
FNDA:0,_ZNK7testing8UnitTest15start_timestampEv
FNDA:10,_ZNK7testing8UnitTest12elapsed_timeEv
FNDA:10,_ZNK7testing8UnitTest6PassedEv
FNDA:0,_ZNK7testing8UnitTest6FailedEv
FNDA:6,_ZNK7testing8UnitTest11GetTestCaseEi
FNDA:0,_ZNK7testing8UnitTest18ad_hoc_test_resultEv
FNDA:0,_ZN7testing8UnitTest18GetMutableTestCaseEi
FNDA:649,_ZN7testing8UnitTest9listenersEv
FNDA:0,_ZN7testing8UnitTest14AddEnvironmentEPNS_11EnvironmentE
FNDA:7,_ZN7testing8UnitTest17AddTestPartResultENS_14TestPartResult4TypeEPKciRKNSt7__cxx1112basic_stringIcSt11char_traitsIcESaIcEEESC_
FNDA:0,_ZN7testing8UnitTest14RecordPropertyERKNSt7__cxx1112basic_stringIcSt11char_traitsIcESaIcEEES8_
FNDA:10,_ZN7testing8UnitTest3RunEv
FNDA:0,_ZNK7testing8UnitTest20original_working_dirEv
FNDA:0,_ZNK7testing8UnitTest17current_test_caseEv
FNDA:0,_ZNK7testing8UnitTest17current_test_infoEv
FNDA:0,_ZNK7testing8UnitTest11random_seedEv
FNDA:0,_ZN7testing8UnitTest27parameterized_test_registryEv
FNDA:10,_ZN7testing8UnitTestC2Ev
FNDA:0,_ZN7testing8UnitTestD0Ev
FNDA:0,_ZN7testing8UnitTestD2Ev
FNDA:0,_ZN7testing8UnitTest14PushGTestTraceERKNS_8internal9TraceInfoE
FNDA:0,_ZN7testing8UnitTest13PopGTestTraceEv
FNDA:10,_ZN7testing8internal12UnitTestImplC2EPNS_8UnitTestE
FNDA:0,_ZN7testing8internal12UnitTestImplD0Ev
FNDA:0,_ZN7testing8internal12UnitTestImplD2Ev
FNDA:0,_ZN7testing8internal12UnitTestImpl14RecordPropertyERKNS_12TestPropertyE
FNDA:10,_ZN7testing8internal12UnitTestImpl32SuppressTestEventsIfInSubprocessEv
FNDA:10,_ZN7testing8internal12UnitTestImpl18ConfigureXmlOutputEv
FNDA:10,_ZN7testing8internal12UnitTestImpl24ConfigureStreamingOutputEv
FNDA:20,_ZN7testing8internal12UnitTestImpl19PostFlagParsingInitEv
FNDA:2556,_ZN7testing8internal14TestCaseNameIsC2ERKS1_
FNDA:3195,_ZN7testing8internal14TestCaseNameIsD2Ev
FNDA:639,_ZN7testing8internal14TestCaseNameIsC2ERKNSt7__cxx1112basic_stringIcSt11char_traitsIcESaIcEEE
FNDA:629,_ZNK7testing8internal14TestCaseNameIsclEPKNS_8TestCaseE
FNDA:639,_ZN7testing8internal12UnitTestImpl11GetTestCaseEPKcS3_PFvvES5_
FNDA:0,_ZN7testing8internalL16SetUpEnvironmentEPNS_11EnvironmentE
FNDA:0,_ZN7testing8internalL19TearDownEnvironmentEPNS_11EnvironmentE
FNDA:10,_ZN7testing8internal12UnitTestImpl11RunAllTestsEv
FNDA:10,_ZN7testing8internal30WriteToShardStatusFileIfNeededEv
FNDA:20,_ZN7testing8internal11ShouldShardEPKcS2_b
FNDA:40,_ZN7testing8internal17Int32FromEnvOrDieEPKci
FNDA:0,_ZN7testing8internal20ShouldRunTestOnShardEiii
FNDA:10,_ZN7testing8internal12UnitTestImpl11FilterTestsENS1_18ReactionToShardingE
FNDA:0,_ZN7testing8internalL14PrintOnOneLineEPKci
FNDA:0,_ZN7testing8internal12UnitTestImpl23ListTestsMatchingFilterEv
FNDA:0,_ZN7testing8internal12UnitTestImpl25set_os_stack_trace_getterEPNS0_27OsStackTraceGetterInterfaceE
FNDA:3215,_ZN7testing8internal12UnitTestImpl21os_stack_trace_getterEv
FNDA:1295,_ZN7testing8internal12UnitTestImpl19current_test_resultEv
FNDA:0,_ZN7testing8internal12UnitTestImpl12ShuffleTestsEv
FNDA:10,_ZN7testing8internal12UnitTestImpl14UnshuffleTestsEv
FNDA:0,_ZN7testing8internal31GetCurrentOsStackTraceExceptTopB5cxx11EPNS_8UnitTestEi
FNDA:1130,_ZN7testing8internal6IsTrueEb
FNDA:0,_ZN7testing8internal10AlwaysTrueEv
FNDA:0,_ZN7testing8internal10SkipPrefixEPKcPS2_
FNDA:0,_ZN7testing8internal14ParseFlagValueEPKcS2_b
FNDA:0,_ZN7testing8internal13ParseBoolFlagEPKcS2_Pb
FNDA:0,_ZN7testing8internal14ParseInt32FlagEPKcS2_Pi
FNDA:0,_ZN7testing8internal15ParseStringFlagEPKcS2_PNSt7__cxx1112basic_stringIcSt11char_traitsIcESaIcEEE
FNDA:0,_ZN7testing8internalL23HasGoogleTestFlagPrefixEPKc
FNDA:0,_ZN7testing8internalL17PrintColorEncodedEPKc
FNDA:0,_ZN7testing8internal28ParseGoogleTestFlagsOnlyImplIwEEvPiPPT_
FNDA:10,_ZN7testing8internal28ParseGoogleTestFlagsOnlyImplIcEEvPiPPT_
FNDA:10,_ZN7testing8internal24ParseGoogleTestFlagsOnlyEPiPPc
FNDA:0,_ZN7testing8internal24ParseGoogleTestFlagsOnlyEPiPPw
FNDA:0,_ZN7testing8internal18InitGoogleTestImplIwEEvPiPPT_
FNDA:10,_ZN7testing8internal18InitGoogleTestImplIcEEvPiPPT_
FNDA:10,_ZN7testing14InitGoogleTestEPiPPc
FNDA:0,_ZN7testing14InitGoogleTestEPiPPw
FNDA:0,_ZN7testing8internal16InDeathTestChildEv
FNDA:0,_ZN7testing14ExitedWithCodeC2Ei
FNDA:0,_ZNK7testing14ExitedWithCodeclEi
FNDA:0,_ZN7testing14KilledBySignalC2Ei
FNDA:0,_ZNK7testing14KilledBySignalclEi
FNDA:0,_ZN7testing8internalL11ExitSummaryEi
FNDA:0,_ZN7testing8internal20ExitedUnsuccessfullyEi
FNDA:0,_ZN7testing8internalL22DeathTestThreadWarningEm
FNDA:0,_ZN7testing8internal14DeathTestAbortERKNSt7__cxx1112basic_stringIcSt11char_traitsIcESaIcEEE
FNDA:0,_ZN7testing8internal23GetLastErrnoDescriptionB5cxx11Ev
FNDA:0,_ZN7testing8internalL21FailFromInternalErrorEi
FNDA:0,_ZN7testing8internal9DeathTestC2Ev
FNDA:0,_ZN7testing8internal9DeathTest6CreateEPKcPKNS0_2REES3_iPPS1_
FNDA:0,_ZN7testing8internal9DeathTest11LastMessageEv
FNDA:0,_ZN7testing8internal9DeathTest27set_last_death_test_messageERKNSt7__cxx1112basic_stringIcSt11char_traitsIcESaIcEEE
FNDA:0,_ZN7testing8internal13DeathTestImplC2EPKcPKNS0_2REE
FNDA:0,_ZN7testing8internal13DeathTestImplD0Ev
FNDA:0,_ZN7testing8internal13DeathTestImplD2Ev
FNDA:0,_ZNK7testing8internal13DeathTestImpl9statementEv
FNDA:0,_ZNK7testing8internal13DeathTestImpl5regexEv
FNDA:0,_ZNK7testing8internal13DeathTestImpl7spawnedEv
FNDA:0,_ZN7testing8internal13DeathTestImpl11set_spawnedEb
FNDA:0,_ZNK7testing8internal13DeathTestImpl6statusEv
FNDA:0,_ZN7testing8internal13DeathTestImpl10set_statusEi
FNDA:0,_ZNK7testing8internal13DeathTestImpl7outcomeEv
FNDA:0,_ZN7testing8internal13DeathTestImpl11set_outcomeENS0_16DeathTestOutcomeE
FNDA:0,_ZNK7testing8internal13DeathTestImpl7read_fdEv
FNDA:0,_ZN7testing8internal13DeathTestImpl11set_read_fdEi
FNDA:0,_ZNK7testing8internal13DeathTestImpl8write_fdEv
FNDA:0,_ZN7testing8internal13DeathTestImpl12set_write_fdEi
FNDA:0,_ZN7testing8internal13DeathTestImpl26ReadAndInterpretStatusByteEv
FNDA:0,_ZN7testing8internal13DeathTestImpl5AbortENS0_9DeathTest11AbortReasonE
FNDA:0,_ZN7testing8internalL21FormatDeathTestOutputERKNSt7__cxx1112basic_stringIcSt11char_traitsIcESaIcEEE
FNDA:0,_ZN7testing8internal13DeathTestImpl6PassedEb
FNDA:0,_ZN7testing8internal16ForkingDeathTestD0Ev
FNDA:0,_ZN7testing8internal16ForkingDeathTestD2Ev
FNDA:0,_ZN7testing8internal16ForkingDeathTest13set_child_pidEi
FNDA:0,_ZN7testing8internal16ForkingDeathTestC2EPKcPKNS0_2REE
FNDA:0,_ZN7testing8internal16ForkingDeathTest4WaitEv
FNDA:0,_ZN7testing8internal15NoExecDeathTestD0Ev
FNDA:0,_ZN7testing8internal15NoExecDeathTestD2Ev
FNDA:0,_ZN7testing8internal15NoExecDeathTestC2EPKcPKNS0_2REE
FNDA:0,_ZN7testing8internal15NoExecDeathTest10AssumeRoleEv
FNDA:0,_ZN7testing8internal13ExecDeathTestD0Ev
FNDA:0,_ZN7testing8internal13ExecDeathTestD2Ev
FNDA:0,_ZN7testing8internal13ExecDeathTestC2EPKcPKNS0_2REES3_i
FNDA:0,_ZN7testing8internal13ExecDeathTest32GetArgvsForDeathTestChildProcessB5cxx11Ev
FNDA:0,_ZN7testing8internal9ArgumentsC2Ev
FNDA:0,_ZN7testing8internal9ArgumentsD2Ev
FNDA:0,_ZN7testing8internal9Arguments11AddArgumentEPKc
FNDA:0,_ZN7testing8internal9Arguments12AddArgumentsINSt7__cxx1112basic_stringIcSt11char_traitsIcESaIcEEEEEvRKSt6vectorIT_SaISA_EE
FNDA:0,_ZN7testing8internal9Arguments4ArgvEv
FNDA:0,_ZN7testing8internal10GetEnvironEv
FNDA:0,_ZN7testing8internalL22ExecDeathTestChildMainEPv
FNDA:0,_ZN7testing8internal21StackLowerThanAddressEPKvPb
FNDA:0,_ZN7testing8internal14StackGrowsDownEv
FNDA:0,_ZN7testing8internalL23ExecDeathTestSpawnChildEPKPci
FNDA:0,_ZN7testing8internal13ExecDeathTest10AssumeRoleEv
FNDA:0,_ZN7testing8internal23DefaultDeathTestFactory6CreateEPKcPKNS0_2REES3_iPPNS0_9DeathTestE
FNDA:0,_ZN7testing8internalL11SplitStringERKNSt7__cxx1112basic_stringIcSt11char_traitsIcESaIcEEEcPSt6vectorIS6_SaIS6_EE
FNDA:10,_ZN7testing8internal29ParseInternalRunDeathTestFlagEv
FNDA:500,_ZN7testing8internalL15IsPathSeparatorEc
FNDA:10,_ZN7testing8internal8FilePath13GetCurrentDirEv
FNDA:0,_ZNK7testing8internal8FilePath15RemoveExtensionEPKc
FNDA:0,_ZNK7testing8internal8FilePath21FindLastPathSeparatorEv
FNDA:0,_ZNK7testing8internal8FilePath19RemoveDirectoryNameEv
FNDA:0,_ZNK7testing8internal8FilePath14RemoveFileNameEv
FNDA:0,_ZN7testing8internal8FilePath12MakeFileNameERKS1_S3_iPKc
FNDA:0,_ZN7testing8internal8FilePath11ConcatPathsERKS1_S3_
FNDA:0,_ZNK7testing8internal8FilePath21FileOrDirectoryExistsEv
FNDA:0,_ZNK7testing8internal8FilePath15DirectoryExistsEv
FNDA:0,_ZNK7testing8internal8FilePath15IsRootDirectoryEv
FNDA:0,_ZNK7testing8internal8FilePath14IsAbsolutePathEv
FNDA:0,_ZN7testing8internal8FilePath22GenerateUniqueFileNameERKS1_S3_PKc
FNDA:0,_ZNK7testing8internal8FilePath11IsDirectoryEv
FNDA:0,_ZNK7testing8internal8FilePath28CreateDirectoriesRecursivelyEv
FNDA:0,_ZNK7testing8internal8FilePath12CreateFolderEv
FNDA:0,_ZNK7testing8internal8FilePath27RemoveTrailingPathSeparatorEv
FNDA:10,_ZN7testing8internal8FilePath9NormalizeEv
FNDA:0,_ZN7testing8internal14GetThreadCountEv
FNDA:0,_ZN7testing8internal2RED2Ev
FNDA:0,_ZN7testing8internal2RE9FullMatchEPKcRKS1_
FNDA:0,_ZN7testing8internal2RE12PartialMatchEPKcRKS1_
FNDA:0,_ZN7testing8internal2RE4InitEPKc
FNDA:7,_ZN7testing8internal18FormatFileLocationB5cxx11EPKci
FNDA:0,_ZN7testing8internal37FormatCompilerIndependentFileLocationB5cxx11EPKci
FNDA:0,_ZN7testing8internal8GTestLogC2ENS0_16GTestLogSeverityEPKci
FNDA:0,_ZN7testing8internal8GTestLogD2Ev
FNDA:0,_ZN7testing8internal14CapturedStreamC2Ei
FNDA:0,_ZN7testing8internal14CapturedStreamD2Ev
FNDA:0,_ZN7testing8internal14CapturedStream17GetCapturedStringB5cxx11Ev
FNDA:0,_ZN7testing8internal14CapturedStream11GetFileSizeEP8_IO_FILE
FNDA:0,_ZN7testing8internal14CapturedStream14ReadEntireFileB5cxx11EP8_IO_FILE
FNDA:0,_ZN7testing8internal13CaptureStreamEiPKcPPNS0_14CapturedStreamE
FNDA:0,_ZN7testing8internal17GetCapturedStreamB5cxx11EPPNS0_14CapturedStreamE
FNDA:0,_ZN7testing8internal13CaptureStdoutEv
FNDA:0,_ZN7testing8internal13CaptureStderrEv
FNDA:0,_ZN7testing8internal17GetCapturedStdoutB5cxx11Ev
FNDA:0,_ZN7testing8internal17GetCapturedStderrB5cxx11Ev
FNDA:0,_ZN7testing8internal18SetInjectableArgvsEPKSt6vectorINSt7__cxx1112basic_stringIcSt11char_traitsIcESaIcEEESaIS7_EE
FNDA:0,_ZN7testing8internal18GetInjectableArgvsB5cxx11Ev
FNDA:150,_ZN7testing8internalL12FlagToEnvVarEPKc
FNDA:0,_ZN7testing8internal10ParseInt32ERKNS_7MessageEPKcPi
FNDA:70,_ZN7testing8internal16BoolFromGTestEnvEPKcb
FNDA:30,_ZN7testing8internal17Int32FromGTestEnvEPKci
FNDA:50,_ZN7testing8internal18StringFromGTestEnvEPKcS2_
FNDA:0,_ZN7testing12_GLOBAL__N_126PrintByteSegmentInObjectToEPKhmmPSo
FNDA:0,_ZN7testing12_GLOBAL__N_124PrintBytesInObjectToImplEPKhmPSo
FNDA:0,_ZN7testing9internal220PrintBytesInObjectToEPKhmPSo
FNDA:0,_ZN7testing8internal16IsPrintableAsciiEw
FNDA:0,_ZN7testing8internalL20PrintAsCharLiteralToIhaEENS0_10CharFormatET0_PSo
FNDA:0,_ZN7testing8internalL20PrintAsCharLiteralToIhhEENS0_10CharFormatET0_PSo
FNDA:0,_ZN7testing8internalL20PrintAsCharLiteralToIwwEENS0_10CharFormatET0_PSo
FNDA:0,_ZN7testing8internalL22PrintAsStringLiteralToEwPSo
FNDA:0,_ZN7testing8internalL22PrintAsStringLiteralToEcPSo
FNDA:0,_ZN7testing8internal18PrintCharAndCodeToIwwEEvT0_PSo
FNDA:0,_ZN7testing8internal18PrintCharAndCodeToIhaEEvT0_PSo
FNDA:0,_ZN7testing8internal18PrintCharAndCodeToIhhEEvT0_PSo
FNDA:0,_ZN7testing8internal7PrintToEhPSo
FNDA:0,_ZN7testing8internal7PrintToEaPSo
FNDA:0,_ZN7testing8internal7PrintToEwPSo
FNDA:0,_ZN7testing8internalL20PrintCharsAsStringToIwEEvPKT_mPSo
FNDA:0,_ZN7testing8internalL20PrintCharsAsStringToIcEEvPKT_mPSo
FNDA:0,_ZN7testing8internalL23UniversalPrintCharArrayIwEEvPKT_mPSo
FNDA:0,_ZN7testing8internalL23UniversalPrintCharArrayIcEEvPKT_mPSo
FNDA:0,_ZN7testing8internal19UniversalPrintArrayEPKcmPSo
FNDA:0,_ZN7testing8internal19UniversalPrintArrayEPKwmPSo
FNDA:0,_ZN7testing8internal7PrintToEPKcPSo
FNDA:0,_ZN7testing8internal7PrintToEPKwPSo
FNDA:0,_ZN7testing8internal13PrintStringToERKNSt7__cxx1112basic_stringIcSt11char_traitsIcESaIcEEEPSo
FNDA:0,_ZN7testing8internal17PrintWideStringToERKNSt7__cxx1112basic_stringIwSt11char_traitsIwESaIwEEEPSo
FNDA:7,_ZN7testing14TestPartResult14ExtractSummaryB5cxx11EPKc
FNDA:0,_ZN7testinglsERSoRKNS_14TestPartResultE
FNDA:0,_ZN7testing19TestPartResultArray6AppendERKNS_14TestPartResultE
FNDA:0,_ZNK7testing19TestPartResultArray17GetTestPartResultEi
FNDA:0,_ZNK7testing19TestPartResultArray4sizeEv
FNDA:0,_ZN7testing8internal24HasNewFatalFailureHelperC2Ev
FNDA:0,_ZN7testing8internal24HasNewFatalFailureHelperD0Ev
FNDA:0,_ZN7testing8internal24HasNewFatalFailureHelperD2Ev
FNDA:0,_ZN7testing8internal24HasNewFatalFailureHelper20ReportTestPartResultERKNS_14TestPartResultE
FNDA:0,_ZN7testing8internalL10SkipSpacesEPKc
FNDA:0,_ZN7testing8internal19TypedTestCasePState25VerifyRegisteredTestNamesEPKciS3_
FNDA:10,_GLOBAL__sub_I__ZN7testing8internal17kStackTraceMarkerE
FNDA:10,_Z41__static_initialization_and_destruction_0ii
FNF:569
FNH:204
DA:536,0
DA:538,0
DA:539,0
DA:544,0
DA:545,0
DA:546,0
DA:552,0
DA:553,0
DA:554,0
DA:555,0
DA:556,0
DA:557,0
DA:565,639
DA:566,639
DA:567,639
DA:568,639
DA:569,639
DA:570,639
DA:571,639
DA:572,639
DA:573,639
DA:574,639
DA:575,639
DA:576,639
DA:577,639
DA:578,639
DA:579,639
DA:580,639
DA:581,639
DA:582,639
DA:583,639
DA:586,1278
DA:587,639
DA:588,639
DA:589,639
DA:590,639
DA:591,639
DA:592,639
DA:593,639
DA:594,639
DA:595,639
DA:596,639
DA:597,639
DA:598,639
DA:599,639
DA:600,639
DA:601,639
DA:602,639
DA:603,639
DA:604,639
DA:683,1436
DA:686,1436
DA:687,8379
DA:688,6943
DA:689,3257
DA:691,1436
DA:696,30
DA:697,30
DA:698,30
DA:703,1039
DA:704,1039
DA:712,0
DA:714,0
DA:715,0
DA:716,0
DA:717,0
DA:718,0
DA:719,0
DA:720,0
DA:724,0
DA:725,0
DA:726,0
DA:727,0
DA:729,0
DA:733,0
DA:734,0
DA:735,0
DA:740,0
DA:741,0
DA:742,0
DA:747,0
DA:752,0
DA:755,0
DA:756,0
DA:820,10
DA:821,0
DA:841,0
DA:843,10
DA:867,0
DA:875,0
DA:891,0
DA:971,0
DA:974,10
DA:977,20
DA:981,20
DA:982,20
DA:987,6
DA:988,6
DA:989,6
DA:994,10
DA:995,10
DA:996,10
DA:1000,676
DA:1007,8
DA:1055,639
DA:1065,639
DA:1066,10
DA:1067,10
DA:1068,0
DA:1074,639
DA:1075,639
DA:1080,0
DA:1081,0
DA:1086,20
DA:1087,20
DA:1088,20
DA:1093,1278
DA:1094,1278
DA:1095,1278
DA:1112,10
DA:1113,10
DA:1114,10
DA:1143,639
DA:1144,639
DA:1145,0
DA:1149,0
DA:1152,7
DA:1153,7
DA:1160,10
DA:1161,10
DA:1162,10
DA:1167,0
DA:1168,0
DA:1172,0
DA:1173,0
DA:1199,0
DA:1202,0
DA:1213,3225
DA:1220,10
DA:1337,7089
DA:1338,7089
DA:1403,0
DA:1407,0
DA:1408,0
DA:1410,0
DA:1425,0
DA:1429,0
DA:1433,0
DA:1435,0
DA:1436,0
DA:1437,0
DA:1438,0
DA:1440,0
DA:1471,0
DA:1474,0
DA:1476,0
DA:1482,0
DA:1485,0
DA:1486,0
DA:1487,0
DA:1493,0
DA:1494,0
DA:1495,0
DA:1496,0
DA:1498,0
DA:1499,0
DA:1500,0
DA:1501,0
DA:1504,0
DA:1505,0
DA:1506,0
DA:1508,0
DA:1509,0
DA:1510,0
DA:1511,0
DA:1512,0
DA:1514,0
DA:1521,0
DA:1522,0
DA:1523,0
DA:1525,0
DA:1526,0
DA:1527,0
DA:1539,0
DA:1540,0
DA:1545,0
DA:1546,0
DA:1547,0
DA:1549,0
DA:1552,0
DA:1555,0
DA:1556,0
DA:1558,0
DA:1559,0
DA:1560,0
DA:1561,0
DA:1563,0
DA:1564,0
DA:1565,0
DA:1566,0
DA:1567,0
DA:1569,0
DA:1570,0
DA:1571,0
DA:1573,0
DA:1574,0
DA:1575,0
DA:1576,0
DA:1577,0
DA:1579,0
DA:1580,0
DA:1581,0
DA:1583,0
DA:1584,0
DA:1585,0
DA:1586,0
DA:1587,0
DA:1588,0
DA:1590,0
DA:1591,0
DA:1592,0
DA:1593,0
DA:1594,0
DA:1595,0
DA:1596,0
DA:1597,0
DA:1601,0
DA:1605,0
DA:1607,0
DA:1669,10
DA:1670,10
DA:1673,10
DA:1678,10
DA:1683,10
DA:1689,10
DA:1697,10
DA:1709,10
DA:1721,10
DA:1727,10
DA:1733,10
DA:1744,10
DA:1750,10
DA:1756,10
DA:1763,10
DA:1775,0
DA:1777,0
DA:1779,0
DA:1780,0
DA:1781,0
DA:1782,0
DA:1783,0
DA:1788,0
DA:1800,10
DA:1805,62
DA:1807,62
DA:1808,124
DA:1809,62
DA:1811,62
DA:1815,0
DA:1816,0
DA:1820,20
DA:1821,20
DA:1826,20
DA:1827,20
DA:1831,7
DA:1835,7
DA:1836,7
DA:1838,14
DA:1839,7
DA:1840,7
DA:1843,7
DA:1845,7
DA:1846,14
DA:1848,14
DA:1850,7
DA:1851,7
DA:1857,10
DA:1861,0
DA:1862,0
DA:1867,0
DA:1870,0
DA:1876,10
DA:1877,10
DA:1878,10
DA:1880,10
DA:1883,10
DA:1888,0
DA:1889,0
DA:1890,0
DA:1891,0
DA:1893,0
DA:1894,0
DA:1895,0
DA:1898,0
DA:1900,0
DA:1901,0
DA:1906,0
DA:1908,0
DA:1910,0
DA:1911,0
DA:1914,0
DA:1915,0
DA:1916,0
DA:1924,51270
DA:1926,51270
DA:1929,1278
DA:1931,0
DA:1933,49353
DA:1934,49353
DA:1936,17596
DA:1937,17596
DA:1941,2566
DA:1943,2566
DA:1944,1288
DA:1945,3854
DA:1946,639
DA:1950,3215
DA:1953,3215
DA:1954,1927
DA:1958,1288
DA:1964,639
DA:1966,1278
DA:1970,639
DA:1971,639
DA:1972,1278
DA:1973,1278
DA:1974,639
DA:1975,639
DA:1976,639
DA:1978,0
DA:1979,0
DA:1980,0
DA:1982,0
DA:1988,1278
DA:1989,1917
DA:2025,0
DA:2028,0
DA:2029,0
DA:2030,0
DA:2035,0
DA:2038,0
DA:2039,0
DA:2040,0
DA:2042,0
DA:2043,0
DA:2044,0
DA:2045,0
DA:2046,0
DA:2048,0
DA:2049,0
DA:2051,0
DA:2055,0
DA:2056,0
DA:2057,0
DA:2058,0
DA:2060,0
DA:2062,0
DA:2066,0
DA:2068,0
DA:2069,0
DA:2082,649
DA:2083,649
DA:2088,10
DA:2093,0
DA:2101,0
DA:2102,0
DA:2103,0
DA:2104,0
DA:2105,0
DA:2106,0
DA:2107,0
DA:2109,0
DA:2112,0
DA:2113,0
DA:2114,0
DA:2115,0
DA:2116,0
DA:2119,0
DA:2120,0
DA:2121,0
DA:2122,0
DA:2123,0
DA:2126,0
DA:2132,0
DA:2138,0
DA:2144,0
DA:2145,0
DA:2146,0
DA:2148,10
DA:2149,10
DA:2151,7
DA:2153,7
DA:2154,7
DA:2155,7
DA:2157,10
DA:2158,10
DA:2160,7
DA:2162,7
DA:2163,7
DA:2167,7
DA:2168,14
DA:2169,14
DA:2173,0
DA:2175,0
DA:2176,0
DA:2177,0
DA:2181,7
DA:2182,7
DA:2186,0
DA:2188,0
DA:2189,0
DA:2192,0
DA:2193,0
DA:2197,20
DA:2198,20
DA:2202,32
DA:2203,32
DA:2208,20
DA:2209,20
DA:2213,10
DA:2214,10
DA:2218,22
DA:2219,22
DA:2223,10
DA:2224,10
DA:2225,10
DA:2229,0
DA:2230,0
DA:2234,0
DA:2235,0
DA:2239,0
DA:2240,0
DA:2244,20
DA:2245,20
DA:2258,7
DA:2260,7
DA:2264,1328
DA:2308,1328
DA:2309,1328
DA:2360,48
DA:2361,48
DA:2363,34
DA:2365,34
DA:2372,0
DA:2374,0
DA:2375,0
DA:2376,0
DA:2377,0
DA:2378,0
DA:2380,0
DA:2381,0
DA:2384,0
DA:2395,1097
DA:2398,1097
DA:2399,1097
DA:2403,0
DA:2404,0
DA:2406,0
DA:2407,0
DA:2413,0
DA:2414,0
DA:2415,0
DA:2430,1097
DA:2431,1097
DA:2436,7
DA:2437,7
DA:2438,7
DA:2439,14
DA:2440,28
DA:2441,7
DA:2444,0
DA:2445,0
DA:2446,0
DA:2447,0
DA:2448,0
DA:2452,300503
DA:2453,300503
DA:2457,7
DA:2458,7
DA:2463,0
DA:2464,0
DA:2484,7
DA:2489,14
DA:2490,7
DA:2491,7
DA:2492,4
DA:2495,7
DA:2496,7
DA:2497,0
DA:2499,7
DA:2500,7
DA:2503,14
DA:2507,0
DA:2512,0
DA:2513,0
DA:2514,0
DA:2515,0
DA:2516,0
DA:2517,0
DA:2518,0
DA:2519,0
DA:2523,0
DA:2529,0
DA:2530,0
DA:2534,0
DA:2535,0
DA:2536,0
DA:2537,0
DA:2538,0
DA:2539,0
DA:2545,0
DA:2550,0
DA:2551,0
DA:2555,0
DA:2556,0
DA:2557,0
DA:2564,0
DA:2565,0
DA:2568,0
DA:2569,0
DA:2573,0
DA:2574,0
DA:2575,0
DA:2582,0
DA:2584,0
DA:2589,0
DA:2591,0
DA:2598,0
DA:2602,0
DA:2603,0
DA:2608,0
DA:2609,0
DA:2610,0
DA:2631,0
DA:2634,0
DA:2637,0
DA:2640,0
DA:2643,0
DA:2648,0
DA:2652,0
DA:2653,0
DA:2658,0
DA:2659,0
DA:2660,0
DA:2664,0
DA:2668,0
DA:2669,0
DA:2674,0
DA:2675,0
DA:2676,0
DA:2680,0
DA:2684,0
DA:2685,0
DA:2687,0
DA:2688,0
DA:2689,0
DA:2694,0
DA:2698,0
DA:2699,0
DA:2701,0
DA:2702,0
DA:2703,0
DA:2704,0
DA:2718,0
DA:2719,0
DA:2720,0
DA:2722,0
DA:2725,0
DA:2726,0
DA:2727,0
DA:2729,0
DA:2734,0
DA:2736,0
DA:2744,0
DA:2748,0
DA:2749,0
DA:2751,0
DA:2752,0
DA:2754,0
DA:2755,0
DA:2756,0
DA:2757,0
DA:2758,0
DA:2767,0
DA:2770,0
DA:2773,0
DA:2776,0
DA:2779,0
DA:2782,0
DA:2785,0
DA:2788,0
DA:2791,0
DA:2794,0
DA:2797,0
DA:2800,0
DA:2804,0
DA:2807,0
DA:2810,0
DA:2813,0
DA:2908,0
DA:2909,0
DA:2910,0
DA:2911,0
DA:2920,0
DA:2921,0
DA:2922,0
DA:2926,0
DA:2927,0
DA:2928,0
DA:2929,0
DA:2930,0
DA:2931,0
DA:2932,0
DA:2933,0
DA:2934,0
DA:2935,0
DA:2936,0
DA:2937,0
DA:2939,0
DA:2940,0
DA:2941,0
DA:2942,0
DA:2943,0
DA:2945,0
DA:2955,0
DA:2957,0
DA:2961,0
DA:2963,0
DA:2968,0
DA:2984,0
DA:2985,0
DA:2986,0
DA:2988,0
DA:2989,0
DA:2992,0
DA:2993,0
DA:2994,0
DA:2995,0
DA:2996,0
DA:2997,0
DA:2999,0
DA:3002,0
DA:3004,0
DA:3009,0
DA:3010,0
DA:3012,0
DA:3021,0
DA:3022,0
DA:3024,0
DA:3026,0
DA:3030,0
DA:3034,0
DA:3035,0
DA:3040,0
DA:3041,0
DA:3042,0
DA:3046,0
DA:3050,0
DA:3051,0
DA:3054,0
DA:3055,0
DA:3056,0
DA:3057,0
DA:3066,10
DA:3067,10
DA:3068,0
DA:3069,10
DA:3070,0
DA:3071,10
DA:3086,0
DA:3088,0
DA:3090,0
DA:3095,0
DA:3110,0
DA:3112,0
DA:3113,0
DA:3114,0
DA:3115,0
DA:3116,0
DA:3120,0
DA:3121,0
DA:3122,0
DA:3123,0
DA:3127,0
DA:3128,0
DA:3129,0
DA:3130,0
DA:3134,0
DA:3135,0
DA:3136,0
DA:3137,0
DA:3138,0
DA:3143,1097
DA:3144,2194
DA:3145,1097
DA:3146,1097
DA:3148,1097
DA:3149,1097
DA:3150,10181
DA:3151,9084
DA:3152,0
DA:3154,9084
DA:3158,2194
DA:3162,7
DA:3165,14
DA:3166,7
DA:3167,7
DA:3170,0
DA:3178,659
DA:3180,659
DA:3181,659
DA:3184,0
DA:3185,0
DA:3190,60
DA:3191,60
DA:3192,0
DA:3193,60
DA:3199,0
DA:3200,0
DA:3201,0
DA:3202,0
DA:3206,0
DA:3207,0
DA:3208,0
DA:3211,7
DA:3212,7
DA:3213,7
DA:3218,0
DA:3220,0
DA:3221,0
DA:3223,0
DA:3226,0
DA:3227,0
DA:3228,0
DA:3229,0
DA:3231,0
DA:3269,0
DA:3270,0
DA:3273,0
DA:3275,0
DA:3276,0
DA:3277,0
DA:3278,0
DA:3279,0
DA:3280,0
DA:3282,0
DA:3285,0
DA:3288,0
DA:3289,0
DA:3290,0
DA:3291,0
DA:3292,0
DA:3294,0
DA:3295,0
DA:3297,0
DA:3299,0
DA:3302,0
DA:3304,0
DA:3305,0
DA:3306,0
DA:3307,0
DA:3308,0
DA:3309,0
DA:3311,0
DA:3316,0
DA:3318,0
DA:3319,0
DA:3323,649
DA:3324,649
DA:3325,649
DA:3326,649
DA:3327,649
DA:3328,649
DA:3331,5378
DA:3332,5378
DA:3333,60
DA:3334,60
DA:3336,5318
DA:3340,0
DA:3341,0
DA:3345,1288
DA:3346,1288
DA:3350,0
DA:3351,0
DA:3355,0
DA:3356,0
DA:3361,5438
DA:3362,5438
DA:3366,0
DA:3367,0
DA:3375,639
DA:3376,639
DA:3377,639
DA:3380,1278
DA:3381,639
DA:3382,639
DA:3387,639
DA:3388,639
DA:3393,639
DA:3394,639
DA:3397,0
DA:3398,0
DA:3399,0
DA:3402,0
DA:3403,0
DA:3404,0
DA:3405,0
DA:3406,0
DA:3410,0
DA:3414,0
DA:3419,0
DA:3420,0
DA:3429,639
DA:3430,639
DA:3431,639
DA:3434,639
DA:3435,639
DA:3436,639
DA:3439,639
DA:3440,639
DA:3441,639
DA:3443,639
DA:3445,0
DA:3447,0
DA:3449,0
DA:3457,0
DA:3459,0
DA:3461,0
DA:3462,0
DA:3463,0
DA:3464,0
DA:3465,0
DA:3466,0
DA:3467,0
DA:3468,0
DA:3469,0
DA:3473,0
DA:3474,0
DA:3475,0
DA:3476,0
DA:3477,0
DA:3478,0
DA:3479,0
DA:3480,0
DA:3481,0
DA:3482,0
DA:3484,0
DA:3487,639
DA:3512,0
DA:3514,0
DA:3515,0
DA:3516,0
DA:3518,0
DA:3520,0
DA:3522,0
DA:3528,0
DA:3530,0
DA:3543,3225
DA:3562,3225
DA:3570,3225
DA:3595,3225
DA:3598,3225
DA:3599,0
DA:3603,0
DA:3604,0
DA:3605,0
DA:3607,0
DA:3608,0
DA:3609,0
DA:3613,0
DA:3618,0
DA:3625,639
DA:3626,639
DA:3628,639
DA:3629,639
DA:3630,639
DA:3632,639
DA:3633,639
DA:3635,639
DA:3641,639
DA:3643,639
DA:3647,1288
DA:3648,1288
DA:3652,0
DA:3654,0
DA:3661,639
DA:3669,0
DA:3670,0
DA:3676,639
DA:3679,0
DA:3700,639
DA:3711,639
DA:3712,639
DA:3713,639
DA:3717,0
DA:3719,0
DA:3721,0
DA:3722,0
DA:3723,0
DA:3724,0
DA:3725,0
DA:3726,0
DA:3727,0
DA:3728,0
DA:3730,0
DA:3731,0
DA:3732,0
DA:3771,10
DA:3773,10
DA:3774,10
DA:3775,10
DA:3778,10
DA:3784,639
DA:3785,639
DA:3788,639
DA:3789,639
DA:3791,639
DA:3794,639
DA:3796,639
DA:3798,639
DA:3801,639
DA:3802,639
DA:3803,639
DA:3807,639
DA:3810,639
DA:3814,639
DA:3816,639
DA:3818,639
DA:3821,639
DA:3825,639
DA:3831,10
DA:3832,10
DA:3836,48
DA:3837,48
DA:3841,10
DA:3842,10
DA:3846,0
DA:3847,0
DA:3851,0
DA:3852,0
DA:3856,40
DA:3857,40
DA:3861,1039
DA:3862,1039
DA:3874,10
DA:3878,0
DA:3882,10
DA:3883,10
DA:3886,0
DA:3888,0
DA:3889,0
DA:3893,384
DA:3894,384
DA:3895,384
DA:3900,639
DA:3901,639
DA:3902,639
DA:3907,639
DA:3908,639
DA:3909,639
DA:3910,639
DA:3913,10
DA:3914,10
DA:3916,10
DA:3917,10
DA:3919,10
DA:3921,10
DA:3922,10
DA:3924,10
DA:3926,10
DA:3927,649
DA:3928,639
DA:3930,10
DA:3932,10
DA:3934,10
DA:3936,10
DA:3937,10
DA:3941,10
DA:3942,10
DA:3943,10
DA:3944,10
DA:3947,0
DA:3948,0
DA:3949,0
DA:3952,10
DA:3953,649
DA:3954,639
DA:3956,10
DA:3963,76
DA:3966,152
DA:3967,228
DA:3971,36
DA:3972,36
DA:3976,20
DA:3977,20
DA:3984,7
DA:3985,7
DA:3987,0
DA:3994,7
DA:3997,0
DA:4004,7
DA:4007,14
DA:4008,14
DA:4009,21
DA:4010,21
DA:4014,7
DA:4016,14
DA:4017,7
DA:4018,7
DA:4030,7
DA:4057,1086
DA:4058,1086
DA:4059,12
DA:4060,1074
DA:4061,0
DA:4062,0
DA:4069,10
DA:4070,10
DA:4072,10
DA:4079,10
DA:4081,20
DA:4082,20
DA:4083,12
DA:4084,4
DA:4085,4
DA:4086,14
DA:4087,12
DA:4088,10
DA:4092,0
DA:4093,0
DA:4094,0
DA:4095,0
DA:4105,1360
DA:4107,1360
DA:4113,1360
DA:4114,1360
DA:4118,1360
DA:4119,274
DA:4120,274
DA:4121,274
DA:4144,1086
DA:4145,1086
DA:4146,1086
DA:4148,1086
DA:4156,12
DA:4157,12
DA:4158,12
DA:4160,12
DA:4161,0
DA:4162,0
DA:4163,0
DA:4164,0
DA:4165,0
DA:4167,0
DA:4168,0
DA:4171,12
DA:4176,0
DA:4178,10
DA:4179,1278
DA:4180,1278
DA:4181,1278
DA:4184,10
DA:4187,10
DA:4194,10
DA:4196,10
DA:4203,10
DA:4205,10
DA:4206,0
DA:4208,10
DA:4212,10
DA:4214,0
DA:4217,10
DA:4218,0
DA:4219,0
DA:4222,0
DA:4225,10
DA:4226,0
DA:4228,0
DA:4231,10
DA:4232,20
DA:4233,20
DA:4234,30
DA:4235,10
DA:4236,10
DA:4238,10
DA:4240,10
DA:4241,10
DA:4242,10
DA:4243,10
DA:4245,10
DA:4247,20
DA:4248,10
DA:4249,10
DA:4250,10
DA:4251,10
DA:4253,0
DA:4255,10
DA:4256,10
DA:4258,639
DA:4259,639
DA:4260,639
DA:4261,639
DA:4262,639
DA:4263,639
DA:4266,7
DA:4269,7
DA:4270,0
DA:4273,7
DA:4274,7
DA:4277,639
DA:4278,639
DA:4279,633
DA:4281,6
DA:4283,639
DA:4284,639
DA:4285,6
DA:4287,639
DA:4288,1278
DA:4289,1278
DA:4291,0
DA:4293,639
DA:4294,639
DA:4296,10
DA:4297,10
DA:4300,20
DA:4301,10
DA:4302,10
DA:4304,20
DA:4305,10
DA:4308,10
DA:4310,10
DA:4311,10
DA:4312,10
DA:4313,10
DA:4316,6
DA:4317,6
DA:4318,6
DA:4319,0
DA:4322,12
DA:4323,6
DA:4324,6
DA:4325,0
DA:4327,390
DA:4328,384
DA:4329,384
DA:4330,378
DA:4332,6
DA:4333,6
DA:4334,6
DA:4335,6
DA:4340,10
DA:4342,10
DA:4343,20
DA:4344,20
DA:4345,30
DA:4346,10
DA:4347,10
DA:4348,20
DA:4350,10
DA:4351,10
DA:4352,10
DA:4354,10
DA:4355,10
DA:4356,6
DA:4357,6
DA:4358,6
DA:4359,6
DA:4360,6
DA:4361,6
DA:4364,10
DA:4365,10
DA:4366,0
DA:4367,0
DA:4369,0
DA:4372,0
DA:4375,10
DA:4376,10
DA:4385,10
DA:4392,0
DA:4393,0
DA:4419,0
DA:4420,0
DA:4421,0
DA:4423,10
DA:4424,10
DA:4425,10
DA:4428,10
DA:4429,10
DA:4430,0
DA:4431,0
DA:4432,0
DA:4436,10
DA:4460,10
DA:4461,10
DA:4462,10
DA:4463,639
DA:4464,7
DA:4465,10
DA:4466,10
DA:4467,10
DA:4468,639
DA:4469,10
DA:4470,10
DA:4475,10
DA:4477,10
DA:4478,20
DA:4479,10
DA:4482,10
DA:4484,10
DA:4486,10
DA:4487,20
DA:4488,10
DA:4491,10
DA:4496,0
DA:4505,0
DA:4506,0
DA:4510,0
DA:4511,0
DA:4524,0
DA:4525,0
DA:4569,0
DA:4570,0
DA:4571,0
DA:4572,0
DA:4573,0
DA:4574,0
DA:4576,0
DA:4579,0
DA:4581,0
DA:4582,0
DA:4583,0
DA:4585,0
DA:4586,0
DA:4588,0
DA:4599,0
DA:4601,0
DA:4602,0
DA:4603,0
DA:4605,0
DA:4606,0
DA:4607,0
DA:4608,0
DA:4609,0
DA:4623,0
DA:4625,0
DA:4627,0
DA:4628,0
DA:4629,0
DA:4631,0
DA:4632,0
DA:4634,0
DA:4635,0
DA:4637,0
DA:4638,0
DA:4640,0
DA:4641,0
DA:4643,0
DA:4644,0
DA:4646,0
DA:4647,0
DA:4649,0
DA:4650,0
DA:4652,0
DA:4653,0
DA:4654,0
DA:4655,0
DA:4657,0
DA:4659,0
DA:4663,0
DA:4669,0
DA:4671,0
DA:4672,0
DA:4673,0
DA:4674,0
DA:4675,0
DA:4677,0
DA:4697,0
DA:4698,0
DA:4699,0
DA:4700,0
DA:4705,0
DA:4707,0
DA:4715,0
DA:4717,0
DA:4718,0
DA:4721,0
DA:4722,0
DA:4723,0
DA:4724,0
DA:4725,0
DA:4726,0
DA:4730,0
DA:4732,0
DA:4733,0
DA:4734,0
DA:4735,0
DA:4736,0
DA:4738,0
DA:4739,0
DA:4740,0
DA:4742,0
DA:4743,0
DA:4746,0
DA:4747,0
DA:4749,0
DA:4755,0
DA:4757,0
DA:4759,0
DA:4760,0
DA:4762,0
DA:4763,0
DA:4767,0
DA:4770,0
DA:4771,0
DA:4773,0
DA:4774,0
DA:4776,0
DA:4777,0
DA:4778,0
DA:4780,0
DA:4781,0
DA:4784,0
DA:4785,0
DA:4786,0
DA:4787,0
DA:4788,0
DA:4789,0
DA:4791,0
DA:4792,0
DA:4793,0
DA:4794,0
DA:4795,0
DA:4796,0
DA:4799,0
DA:4800,0
DA:4801,0
DA:4802,0
DA:4803,0
DA:4804,0
DA:4805,0
DA:4806,0
DA:4810,0
DA:4811,0
DA:4813,0
DA:4814,0
DA:4817,0
DA:4819,0
DA:4820,0
DA:4821,0
DA:4822,0
DA:4823,0
DA:4824,0
DA:4825,0
DA:4826,0
DA:4828,0
DA:4829,0
DA:4830,0
DA:4831,0
DA:4832,0
DA:4833,0
DA:4835,0
DA:4836,0
DA:4837,0
DA:4839,0
DA:4840,0
DA:4843,0
DA:4845,0
DA:4847,0
DA:4848,0
DA:4850,0
DA:4851,0
DA:4852,0
DA:4853,0
DA:4854,0
DA:4856,0
DA:4857,0
DA:4858,0
DA:4860,0
DA:4861,0
DA:4862,0
DA:4864,0
DA:4865,0
DA:4866,0
DA:4869,0
DA:4871,0
DA:4872,0
DA:4874,0
DA:4875,0
DA:4876,0
DA:4878,0
DA:4879,0
DA:4883,0
DA:4885,0
DA:4886,0
DA:4887,0
DA:4888,0
DA:4889,0
DA:4891,0
DA:4903,0
DA:4904,0
DA:4905,0
DA:4906,0
DA:4907,0
DA:4912,0
DA:4913,0
DA:4915,0
DA:4916,0
DA:4919,0
DA:4922,0
DA:4923,0
DA:4924,0
DA:4927,0
DA:4928,0
DA:4929,0
DA:4930,0
DA:4934,0
DA:4935,0
DA:4936,0
DA:4937,0
DA:4938,0
DA:4942,0
DA:4944,0
DA:4945,0
DA:4946,0
DA:4948,0
DA:4949,0
DA:4950,0
DA:4955,0
DA:4957,0
DA:4958,0
DA:4959,0
DA:4961,0
DA:4970,0
DA:4972,0
DA:4973,0
DA:4974,0
DA:4975,0
DA:4977,0
DA:4978,0
DA:4981,0
DA:4983,0
DA:4984,0
DA:4996,0
DA:4999,0
DA:5002,3215
DA:5004,3215
DA:5014,10
DA:5015,10
DA:5017,10
DA:5021,0
DA:5022,0
DA:5023,0
DA:5025,10
DA:5027,20
DA:5028,10
DA:5029,0
DA:5031,10
DA:5043,10
DA:5046,10
DA:5047,10
DA:5049,0
DA:5055,10
DA:5056,10
DA:5057,10
DA:5062,10
DA:5063,10
DA:5064,10
DA:5065,0
DA:5066,0
DA:5067,10
DA:5072,666
DA:5079,10
DA:5080,10
DA:5083,10
DA:5084,10
DA:5085,10
DA:5086,10
DA:5088,10
DA:5095,0
DA:5096,0
DA:5099,0
DA:5100,0
DA:5101,0
DA:5102,0
DA:5104,0
DA:5108,0
DA:5109,0
DA:5112,0
DA:5113,0
DA:5114,0
DA:5125,7762
DA:5141,7762
DA:5142,7762
DA:5147,0
DA:5148,0
DA:5152,0
DA:5153,0
DA:5157,12
DA:5158,12
DA:5163,20
DA:5164,20
DA:5168,10
DA:5169,10
DA:5173,22
DA:5176,10
DA:5177,10
DA:5181,0
DA:5182,0
DA:5186,0
DA:5187,0
DA:5191,0
DA:5194,20
DA:5198,0
DA:5199,0
DA:5203,10
DA:5204,10
DA:5208,10
DA:5212,0
DA:5216,6
DA:5217,6
DA:5222,0
DA:5223,0
DA:5228,0
DA:5229,0
DA:5234,649
DA:5235,649
DA:5248,0
DA:5249,0
DA:5250,0
DA:5253,0
DA:5254,0
DA:5261,7
DA:5267,14
DA:5268,7
DA:5270,14
DA:5271,7
DA:5272,0
DA:5274,0
DA:5275,0
DA:5276,0
DA:5277,0
DA:5278,0
DA:5282,7
DA:5283,0
DA:5288,14
DA:5289,7
DA:5290,7
DA:5292,7
DA:5298,7
DA:5309,0
DA:5311,7
DA:5313,0
DA:5321,7
DA:5328,0
DA:5330,0
DA:5331,0
DA:5338,10
DA:5340,10
DA:5365,20
DA:5369,10
DA:5410,10
DA:5413,20
DA:5418,0
DA:5419,0
DA:5424,0
DA:5426,0
DA:5427,0
DA:5432,0
DA:5434,0
DA:5435,0
DA:5439,0
DA:5445,0
DA:5447,0
DA:5452,10
DA:5453,10
DA:5454,10
DA:5457,0
DA:5458,0
DA:5459,0
DA:5463,0
DA:5465,0
DA:5466,0
DA:5467,0
DA:5470,0
DA:5472,0
DA:5473,0
DA:5474,0
DA:5478,10
DA:5510,10
DA:5513,20
DA:5514,10
DA:5515,10
DA:5517,0
DA:5519,0
DA:5522,0
DA:5524,0
DA:5525,0
DA:5532,0
DA:5533,0
DA:5536,0
DA:5537,0
DA:5538,0
DA:5539,0
DA:5540,0
DA:5541,0
DA:5543,0
DA:5544,0
DA:5546,0
DA:5547,0
DA:5552,10
DA:5553,10
DA:5554,0
DA:5555,10
DA:5560,10
DA:5561,20
DA:5562,10
DA:5563,0
DA:5564,0
DA:5565,10
DA:5566,0
DA:5567,0
DA:5568,0
DA:5570,10
DA:5575,10
DA:5576,10
DA:5577,10
DA:5578,0
DA:5579,0
DA:5580,0
DA:5581,0
DA:5583,0
DA:5584,0
DA:5585,0
DA:5588,10
DA:5596,20
DA:5598,20
DA:5599,10
DA:5602,10
DA:5603,10
DA:5609,10
DA:5613,10
DA:5617,10
DA:5620,20
DA:5630,5751
DA:5633,639
DA:5634,639
DA:5637,629
DA:5638,629
DA:5657,639
DA:5663,1278
DA:5664,1917
DA:5666,639
DA:5667,629
DA:5671,10
DA:5674,10
DA:5680,0
DA:5681,0
DA:5682,0
DA:5685,10
DA:5688,10
DA:5689,10
DA:5694,0
DA:5695,0
DA:5706,10
DA:5708,10
DA:5711,0
DA:5712,0
DA:5716,10
DA:5717,0
DA:5721,10
DA:5726,10
DA:5730,10
DA:5733,10
DA:5736,10
DA:5737,10
DA:5741,10
DA:5743,10
DA:5746,10
DA:5748,0
DA:5749,0
DA:5753,10
DA:5756,10
DA:5758,10
DA:5760,10
DA:5761,10
DA:5765,10
DA:5767,10
DA:5768,20
DA:5771,10
DA:5773,10
DA:5776,10
DA:5777,0
DA:5781,0
DA:5785,10
DA:5788,10
DA:5790,10
DA:5791,10
DA:5792,10
DA:5796,10
DA:5797,20
DA:5799,10
DA:5804,10
DA:5805,20
DA:5806,10
DA:5807,10
DA:5810,10
DA:5813,10
DA:5816,10
DA:5817,6
DA:5826,10
DA:5828,10
DA:5830,0
DA:5834,10
DA:5836,10
DA:5843,10
DA:5844,10
DA:5845,10
DA:5846,0
DA:5847,0
DA:5851,0
DA:5852,0
DA:5853,0
DA:5855,0
DA:5857,10
DA:5865,20
DA:5868,20
DA:5869,0
DA:5872,20
DA:5873,20
DA:5875,20
DA:5876,20
DA:5877,0
DA:5879,0
DA:5880,0
DA:5881,0
DA:5882,0
DA:5883,0
DA:5884,0
DA:5885,0
DA:5887,0
DA:5888,0
DA:5889,0
DA:5890,0
DA:5891,0
DA:5892,0
DA:5893,0
DA:5895,0
DA:5896,0
DA:5897,0
DA:5898,0
DA:5899,0
DA:5900,0
DA:5901,0
DA:5904,0
DA:5910,40
DA:5911,40
DA:5912,40
DA:5913,40
DA:5917,0
DA:5919,0
DA:5921,0
DA:5928,0
DA:5929,0
DA:5939,10
DA:5941,10
DA:5943,10
DA:5949,10
DA:5950,10
DA:5951,20
DA:5952,10
DA:5953,20
DA:5954,10
DA:5956,649
DA:5957,639
DA:5958,1278
DA:5962,639
DA:5963,1278
DA:5964,639
DA:5965,639
DA:5966,639
DA:5970,639
DA:5971,639
DA:5974,639
DA:5975,639
DA:5977,1278
DA:5978,0
DA:5979,0
DA:5980,639
DA:5982,639
DA:5983,639
DA:5985,639
DA:5986,639
DA:5989,10
DA:5996,0
DA:5997,0
DA:5998,0
DA:5999,0
DA:6000,0
DA:6001,0
DA:6003,0
DA:6004,0
DA:6005,0
DA:6007,0
DA:6008,0
DA:6012,0
DA:6015,0
DA:6017,0
DA:6019,0
DA:6020,0
DA:6021,0
DA:6023,0
DA:6025,0
DA:6026,0
DA:6027,0
DA:6028,0
DA:6029,0
DA:6030,0
DA:6031,0
DA:6034,0
DA:6036,0
DA:6038,0
DA:6039,0
DA:6040,0
DA:6043,0
DA:6045,0
DA:6049,0
DA:6050,0
DA:6057,0
DA:6059,0
DA:6060,0
DA:6061,0
DA:6063,0
DA:6068,3215
DA:6069,3215
DA:6070,10
DA:6073,3215
DA:6078,1295
DA:6079,1295
DA:6080,1295
DA:6085,0
DA:6087,0
DA:6090,0
DA:6091,0
DA:6094,0
DA:6095,0
DA:6097,0
DA:6100,10
DA:6101,20
DA:6103,10
DA:6105,10
DA:6107,10
DA:6119,0
DA:6123,0
DA:6132,1130
DA:6134,0
DA:6138,0
DA:6139,0
DA:6141,0
DA:6147,0
DA:6148,0
DA:6149,0
DA:6150,0
DA:6151,0
DA:6153,0
DA:6161,0
DA:6165,0
DA:6168,0
DA:6169,0
DA:6170,0
DA:6173,0
DA:6176,0
DA:6177,0
DA:6183,0
DA:6186,0
DA:6199,0
DA:6201,0
DA:6204,0
DA:6207,0
DA:6208,0
DA:6216,0
DA:6218,0
DA:6221,0
DA:6224,0
DA:6225,0
DA:6233,0
DA:6235,0
DA:6238,0
DA:6241,0
DA:6242,0
DA:6251,0
DA:6252,0
DA:6253,0
DA:6254,0
DA:6255,0
DA:6256,0
DA:6257,0
DA:6271,0
DA:6272,0
DA:6278,0
DA:6279,0
DA:6280,0
DA:6281,0
DA:6282,0
DA:6285,0
DA:6287,0
DA:6288,0
DA:6289,0
DA:6290,0
DA:6291,0
DA:6292,0
DA:6293,0
DA:6294,0
DA:6295,0
DA:6296,0
DA:6297,0
DA:6298,0
DA:6300,0
DA:6373,10
DA:6374,10
DA:6375,0
DA:6376,0
DA:6383,0
DA:6385,0
DA:6387,0
DA:6389,0
DA:6390,0
DA:6392,0
DA:6394,0
DA:6395,0
DA:6397,0
DA:6398,0
DA:6399,0
DA:6400,0
DA:6401,0
DA:6402,0
DA:6403,0
DA:6405,0
DA:6407,0
DA:6414,0
DA:6415,0
DA:6419,0
DA:6423,0
DA:6424,0
DA:6425,0
DA:6426,0
DA:6429,0
DA:6433,10
DA:6437,0
DA:6439,10
DA:6443,10
DA:6444,10
DA:6445,10
DA:6446,0
DA:6447,0
DA:6448,0
DA:6455,10
DA:6456,10
DA:6459,10
DA:6461,10
DA:6463,10
DA:6467,10
DA:6468,20
DA:6469,10
DA:6474,10
DA:6475,10
DA:6489,10
DA:6490,10
DA:6491,10
DA:6495,0
DA:6496,0
DA:6497,0
DA:6579,10
DA:6588,10
DA:6601,10
DA:6624,0
DA:6633,0
DA:6634,0
DA:6636,0
DA:6643,0
DA:6644,0
DA:6647,0
DA:6654,0
DA:6661,0
DA:6662,0
DA:6665,0
DA:6666,0
DA:6676,0
DA:6677,0
DA:6685,0
DA:6686,0
DA:6687,0
DA:6688,0
DA:6691,0
DA:6692,0
DA:6697,0
DA:6702,0
DA:6703,0
DA:6711,0
DA:6712,0
DA:6713,0
DA:6714,0
DA:6715,0
DA:6716,0
DA:6718,0
DA:6719,0
DA:6745,0
DA:6750,0
DA:6751,0
DA:6752,0
DA:6753,0
DA:6754,0
DA:6755,0
DA:6756,0
DA:6758,0
DA:6759,0
DA:6760,0
DA:6762,0
DA:6798,0
DA:6799,0
DA:6806,0
DA:6807,0
DA:6811,0
DA:6812,0
DA:6813,0
DA:6814,0
DA:6816,0
DA:6818,0
DA:6819,0
DA:6821,0
DA:6822,0
DA:6823,0
DA:6825,0
DA:6829,0
DA:6830,0
DA:6831,0
DA:6832,0
DA:6833,0
DA:6835,0
DA:6839,0
DA:6841,0
DA:6842,0
DA:6845,0
DA:6846,0
DA:6849,0
DA:6850,0
DA:6851,0
DA:6853,10
DA:6858,0
DA:6865,0
DA:6868,0
DA:6873,0
DA:6874,0
DA:6875,0
DA:6876,0
DA:6877,0
DA:6878,0
DA:6879,0
DA:6880,0
DA:6881,0
DA:6882,0
DA:6883,0
DA:6884,0
DA:6919,0
DA:6927,0
DA:6928,0
DA:6929,0
DA:6931,0
DA:6932,0
DA:6933,0
DA:6934,0
DA:6936,0
DA:6937,0
DA:6939,0
DA:6940,0
DA:6942,0
DA:6943,0
DA:6945,0
DA:6946,0
DA:6948,0
DA:6949,0
DA:6950,0
DA:6953,0
DA:6954,0
DA:6956,0
DA:6957,0
DA:6958,0
DA:6964,0
DA:6970,0
DA:6972,0
DA:6981,0
DA:6987,0
DA:6988,0
DA:6989,0
DA:6990,0
DA:6991,0
DA:6992,0
DA:6993,0
DA:6994,0
DA:6996,0
DA:6997,0
DA:6999,0
DA:7024,0
DA:7025,0
DA:7026,0
DA:7028,0
DA:7030,0
DA:7031,0
DA:7033,0
DA:7034,0
DA:7036,0
DA:7037,0
DA:7038,0
DA:7040,0
DA:7041,0
DA:7042,0
DA:7044,0
DA:7045,0
DA:7046,0
DA:7048,0
DA:7049,0
DA:7050,0
DA:7051,0
DA:7053,0
DA:7054,0
DA:7055,0
DA:7058,0
DA:7059,0
DA:7060,0
DA:7062,0
DA:7065,0
DA:7066,0
DA:7069,0
DA:7070,0
DA:7270,0
DA:7278,0
DA:7286,0
DA:7288,0
DA:7293,0
DA:7294,0
DA:7295,0
DA:7297,0
DA:7300,0
DA:7301,0
DA:7302,0
DA:7307,0
DA:7309,0
DA:7310,0
DA:7316,0
DA:7317,0
DA:7318,0
DA:7319,0
DA:7323,0
DA:7325,0
DA:7326,0
DA:7334,0
DA:7336,0
DA:7337,0
DA:7338,0
DA:7339,0
DA:7340,0
DA:7341,0
DA:7345,0
DA:7348,0
DA:7349,0
DA:7350,0
DA:7352,0
DA:7353,0
DA:7354,0
DA:7355,0
DA:7362,0
DA:7364,0
DA:7366,0
DA:7370,0
DA:7371,0
DA:7372,0
DA:7383,0
DA:7384,0
DA:7385,0
DA:7387,0
DA:7388,0
DA:7390,0
DA:7392,0
DA:7393,0
DA:7394,0
DA:7395,0
DA:7398,0
DA:7399,0
DA:7400,0
DA:7402,0
DA:7404,0
DA:7405,0
DA:7406,0
DA:7431,0
DA:7438,0
DA:7439,0
DA:7440,0
DA:7446,0
DA:7448,0
DA:7449,0
DA:7450,0
DA:7451,0
DA:7459,0
DA:7460,0
DA:7461,0
DA:7462,0
DA:7463,0
DA:7477,0
DA:7479,0
DA:7480,0
DA:7482,0
DA:7485,0
DA:7486,0
DA:7496,0
DA:7497,0
DA:7498,0
DA:7537,0
DA:7538,0
DA:7539,0
DA:7540,0
DA:7545,0
DA:7547,0
DA:7548,0
DA:7549,0
DA:7552,0
DA:7553,0
DA:7561,0
DA:7563,0
DA:7564,0
DA:7565,0
DA:7568,0
DA:7570,0
DA:7576,0
DA:7577,0
DA:7578,0
DA:7582,0
DA:7586,0
DA:7587,0
DA:7594,0
DA:7595,0
DA:7597,0
DA:7598,0
DA:7599,0
DA:7601,0
DA:7602,0
DA:7603,0
DA:7607,0
DA:7610,0
DA:7613,0
DA:7614,0
DA:7616,0
DA:7617,0
DA:7618,0
DA:7619,0
DA:7620,0
DA:7621,0
DA:7622,0
DA:7623,0
DA:7625,0
DA:7627,0
DA:7630,0
DA:7632,0
DA:7633,0
DA:7634,0
DA:7635,0
DA:7636,0
DA:7637,0
DA:7647,0
DA:7650,0
DA:7652,0
DA:7654,0
DA:7656,0
DA:7657,0
DA:7659,0
DA:7660,0
DA:7661,0
DA:7662,0
DA:7665,0
DA:7666,0
DA:7667,0
DA:7668,0
DA:7681,0
DA:7682,0
DA:7683,0
DA:7684,0
DA:7691,0
DA:7692,0
DA:7693,0
DA:7696,0
DA:7702,0
DA:7704,0
DA:7705,0
DA:7706,0
DA:7707,0
DA:7708,0
DA:7709,0
DA:7710,0
DA:7712,0
DA:7713,0
DA:7716,0
DA:7717,0
DA:7790,10
DA:7791,10
DA:7795,0
DA:7796,0
DA:7797,0
DA:7798,0
DA:7799,0
DA:7821,0
DA:7822,0
DA:7823,0
DA:7824,0
DA:7826,0
DA:7831,0
DA:7926,500
DA:7930,500
DA:7935,10
DA:7944,10
DA:7945,10
DA:7953,0
DA:7954,0
DA:7955,0
DA:7956,0
DA:7957,0
DA:7959,0
DA:7965,0
DA:7966,0
DA:7975,0
DA:7984,0
DA:7985,0
DA:7986,0
DA:7995,0
DA:7996,0
DA:7997,0
DA:7998,0
DA:7999,0
DA:8001,0
DA:8003,0
DA:8012,0
DA:8016,0
DA:8017,0
DA:8018,0
DA:8020,0
DA:8021,0
DA:8023,0
DA:8028,0
DA:8030,0
DA:8031,0
DA:8032,0
DA:8033,0
DA:8038,0
DA:8046,0
DA:8052,0
DA:8053,0
DA:8060,0
DA:8073,0
DA:8074,0
DA:8077,0
DA:8082,0
DA:8089,0
DA:8094,0
DA:8095,0
DA:8103,0
DA:8115,0
DA:8118,0
DA:8119,0
DA:8120,0
DA:8121,0
DA:8123,0
DA:8129,0
DA:8130,0
DA:8131,0
DA:8137,0
DA:8138,0
DA:8139,0
DA:8142,0
DA:8143,0
DA:8146,0
DA:8147,0
DA:8154,0
DA:8163,0
DA:8166,0
DA:8167,0
DA:8169,0
DA:8175,0
DA:8176,0
DA:8177,0
DA:8178,0
DA:8185,10
DA:8186,10
DA:8187,0
DA:8188,0
DA:8190,10
DA:8191,10
DA:8192,10
DA:8193,10
DA:8195,810
DA:8196,400
DA:8197,400
DA:8198,350
DA:8205,150
DA:8206,50
DA:8208,400
DA:8210,10
DA:8211,10
DA:8212,10
DA:8338,0
DA:8341,0
DA:8350,0
DA:8351,0
DA:8356,0
DA:8357,0
DA:8359,0
DA:8360,0
DA:8363,0
DA:8364,0
DA:8367,0
DA:8372,0
DA:8373,0
DA:8376,0
DA:8380,0
DA:8381,0
DA:8385,0
DA:8386,0
DA:8388,0
DA:8389,0
DA:8398,0
DA:8399,0
DA:8400,0
DA:8402,0
DA:8403,0
DA:8404,0
DA:8406,0
DA:8407,0
DA:8666,7
DA:8667,14
DA:8669,7
DA:8670,0
DA:8675,7
DA:8684,0
DA:8686,0
DA:8688,0
DA:8689,0
DA:8691,0
DA:8695,0
DA:8696,0
DA:8700,0
DA:8701,0
DA:8702,0
DA:8703,0
DA:8706,0
DA:8707,0
DA:8708,0
DA:8709,0
DA:8710,0
DA:8712,0
DA:8726,0
DA:8764,0
DA:8766,0
DA:8767,0
DA:8769,0
DA:8770,0
DA:8771,0
DA:8772,0
DA:8774,0
DA:8775,0
DA:8776,0
DA:8778,0
DA:8779,0
DA:8781,0
DA:8782,0
DA:8783,0
DA:8784,0
DA:8787,0
DA:8788,0
DA:8789,0
DA:8790,0
DA:8809,0
DA:8810,0
DA:8811,0
DA:8815,0
DA:8816,0
DA:8817,0
DA:8819,0
DA:8820,0
DA:8822,0
DA:8826,0
DA:8827,0
DA:8828,0
DA:8829,0
DA:8831,0
DA:8832,0
DA:8834,0
DA:8845,0
DA:8846,0
DA:8847,0
DA:8848,0
DA:8850,0
DA:8851,0
DA:8854,0
DA:8855,0
DA:8857,0
DA:8858,0
DA:8860,0
DA:8864,0
DA:8865,0
DA:8866,0
DA:8869,0
DA:8870,0
DA:8871,0
DA:8874,0
DA:8875,0
DA:8879,0
DA:8880,0
DA:8888,10
DA:8893,0
DA:8894,0
DA:8895,0
DA:8896,0
DA:8897,0
DA:8899,0
DA:8900,0
DA:8901,0
DA:8903,0
DA:8919,150
DA:8921,300
DA:8923,300
DA:8924,2950
DA:8925,2800
DA:8928,300
DA:8934,0
DA:8936,0
DA:8937,0
DA:8940,0
DA:8942,0
DA:8943,0
DA:8944,0
DA:8945,0
DA:8946,0
DA:8947,0
DA:8948,0
DA:8952,0
DA:8953,0
DA:8956,0
DA:8959,0
DA:8960,0
DA:8961,0
DA:8962,0
DA:8963,0
DA:8964,0
DA:8965,0
DA:8968,0
DA:8969,0
DA:8976,70
DA:8977,140
DA:8978,70
DA:8980,140
DA:8986,30
DA:8987,60
DA:8988,30
DA:8989,30
DA:8991,30
DA:8994,0
DA:8995,0
DA:8997,0
DA:8998,0
DA:8999,0
DA:9000,0
DA:9003,0
DA:9008,50
DA:9009,100
DA:9010,50
DA:9011,100
DA:9072,0
DA:9074,0
DA:9075,0
DA:9076,0
DA:9077,0
DA:9080,0
DA:9081,0
DA:9083,0
DA:9085,0
DA:9086,0
DA:9088,0
DA:9091,0
DA:9094,0
DA:9096,0
DA:9097,0
DA:9102,0
DA:9103,0
DA:9105,0
DA:9106,0
DA:9108,0
DA:9109,0
DA:9111,0
DA:9112,0
DA:9123,0
DA:9125,0
DA:9126,0
DA:9146,0
DA:9147,0
DA:9155,0
DA:9156,0
DA:9158,0
DA:9159,0
DA:9161,0
DA:9162,0
DA:9164,0
DA:9165,0
DA:9167,0
DA:9168,0
DA:9170,0
DA:9171,0
DA:9173,0
DA:9174,0
DA:9176,0
DA:9177,0
DA:9179,0
DA:9180,0
DA:9182,0
DA:9183,0
DA:9185,0
DA:9186,0
DA:9188,0
DA:9189,0
DA:9190,0
DA:9192,0
DA:9193,0
DA:9196,0
DA:9201,0
DA:9202,0
DA:9204,0
DA:9205,0
DA:9207,0
DA:9208,0
DA:9210,0
DA:9216,0
DA:9217,0
DA:9218,0
DA:9226,0
DA:9228,0
DA:9229,0
DA:9230,0
DA:9235,0
DA:9236,0
DA:9237,0
DA:9242,0
DA:9245,0
DA:9247,0
DA:9250,0
DA:9251,0
DA:9252,0
DA:9253,0
DA:9254,0
DA:9255,0
DA:9259,0
DA:9260,0
DA:9261,0
DA:9268,0
DA:9270,0
DA:9271,0
DA:9272,0
DA:9273,0
DA:9274,0
DA:9275,0
DA:9279,0
DA:9281,0
DA:9283,0
DA:9284,0
DA:9289,0
DA:9298,0
DA:9299,0
DA:9300,0
DA:9307,0
DA:9308,0
DA:9312,0
DA:9313,0
DA:9314,0
DA:9318,0
DA:9319,0
DA:9320,0
DA:9323,0
DA:9324,0
DA:9325,0
DA:9327,0
DA:9328,0
DA:9330,0
DA:9340,0
DA:9341,0
DA:9342,0
DA:9344,0
DA:9345,0
DA:9347,0
DA:9357,0
DA:9358,0
DA:9359,0
DA:9369,0
DA:9370,0
DA:9371,0
DA:9425,7
DA:9426,7
DA:9428,7
DA:9432,0
DA:9434,0
DA:9435,0
DA:9436,0
DA:9437,0
DA:9438,0
DA:9442,0
DA:9443,0
DA:9444,0
DA:9447,0
DA:9448,0
DA:9449,0
DA:9450,0
DA:9453,0
DA:9457,0
DA:9458,0
DA:9463,0
DA:9466,0
DA:9467,0
DA:9468,0
DA:9470,0
DA:9471,0
DA:9472,0
DA:9473,0
DA:9475,0
DA:9477,0
DA:9478,0
DA:9479,0
DA:9480,0
DA:9524,0
DA:9525,0
DA:9526,0
DA:9527,0
DA:9533,0
DA:9536,0
DA:9540,0
DA:9542,0
DA:9543,0
DA:9544,0
DA:9546,0
DA:9547,0
DA:9548,0
DA:9549,0
DA:9552,0
DA:9553,0
DA:9554,0
DA:9556,0
DA:9557,0
DA:9558,0
DA:9562,0
DA:9563,0
DA:9565,0
DA:9566,0
DA:9570,0
DA:9571,0
DA:9573,0
DA:9574,0
DA:9578,0
DA:9579,0
DA:9580,0
DA:9581,0
DA:9582,0
DA:9583,0
DA:9586,0
DA:9592,30
LF:2766
LH:851
end_of_record
SF:/home/ruperson/Desktop/cpp-course/bigint/gtest/gtest.h
FN:2001,_ZN7testing8internal10scoped_ptrINSt7__cxx1118basic_stringstreamIcSt11char_traitsIcESaIcEEEEC2EPS7_
FN:2001,_ZN7testing8internal10scoped_ptrINS0_16DeathTestFactoryEEC2EPS2_
FN:2001,_ZN7testing8internal10scoped_ptrINSt7__cxx1112basic_stringIcSt11char_traitsIcESaIcEEEEC2EPS7_
FN:2001,_ZN7testing8internal10scoped_ptrINS0_17StreamingListener20AbstractSocketWriterEEC2EPS3_
FN:2001,_ZN7testing8internal10scoped_ptrIKNSt7__cxx1112basic_stringIcSt11char_traitsIcESaIcEEEEC2EPS8_
FN:2001,_ZN7testing8internal10scoped_ptrINS0_24InternalRunDeathTestFlagEEC2EPS2_
FN:2002,_ZN7testing8internal10scoped_ptrINSt7__cxx1112basic_stringIcSt11char_traitsIcESaIcEEEED2Ev
FN:2002,_ZN7testing8internal10scoped_ptrINS0_17StreamingListener20AbstractSocketWriterEED2Ev
FN:2002,_ZN7testing8internal10scoped_ptrINSt7__cxx1118basic_stringstreamIcSt11char_traitsIcESaIcEEEED2Ev
FN:2002,_ZN7testing8internal10scoped_ptrINS0_16DeathTestFactoryEED2Ev
FN:2002,_ZN7testing8internal10scoped_ptrIKNSt7__cxx1112basic_stringIcSt11char_traitsIcESaIcEEEED2Ev
FN:2002,_ZN7testing8internal10scoped_ptrINS0_24InternalRunDeathTestFlagEED2Ev
FN:2004,_ZNK7testing8internal10scoped_ptrINSt7__cxx1118basic_stringstreamIcSt11char_traitsIcESaIcEEEEdeEv
FN:2004,_ZNK7testing8internal10scoped_ptrINSt7__cxx1112basic_stringIcSt11char_traitsIcESaIcEEEEdeEv
FN:2005,_ZNK7testing8internal10scoped_ptrINS0_17StreamingListener20AbstractSocketWriterEEptEv
FN:2005,_ZNK7testing8internal10scoped_ptrINSt7__cxx1112basic_stringIcSt11char_traitsIcESaIcEEEEptEv
FN:2005,_ZNK7testing8internal10scoped_ptrIKNSt7__cxx1112basic_stringIcSt11char_traitsIcESaIcEEEEptEv
FN:2006,_ZNK7testing8internal10scoped_ptrINS0_24InternalRunDeathTestFlagEE3getEv
FN:2006,_ZNK7testing8internal10scoped_ptrINSt7__cxx1118basic_stringstreamIcSt11char_traitsIcESaIcEEEE3getEv
FN:2006,_ZNK7testing8internal10scoped_ptrINS0_16DeathTestFactoryEE3getEv
FN:2006,_ZNK7testing8internal10scoped_ptrINSt7__cxx1112basic_stringIcSt11char_traitsIcESaIcEEEE3getEv
FN:2006,_ZNK7testing8internal10scoped_ptrIKNSt7__cxx1112basic_stringIcSt11char_traitsIcESaIcEEEE3getEv
FN:2014,_ZN7testing8internal10scoped_ptrINSt7__cxx1118basic_stringstreamIcSt11char_traitsIcESaIcEEEE5resetEPS7_
FN:2014,_ZN7testing8internal10scoped_ptrIKNSt7__cxx1112basic_stringIcSt11char_traitsIcESaIcEEEE5resetEPS8_
FN:2014,_ZN7testing8internal10scoped_ptrINSt7__cxx1112basic_stringIcSt11char_traitsIcESaIcEEEE5resetEPS7_
FN:2014,_ZN7testing8internal10scoped_ptrINS0_16DeathTestFactoryEE5resetEPS2_
FN:2014,_ZN7testing8internal10scoped_ptrINS0_24InternalRunDeathTestFlagEE5resetEPS2_
FN:2014,_ZN7testing8internal10scoped_ptrINS0_17StreamingListener20AbstractSocketWriterEE5resetEPS3_
FN:2052,_ZNK7testing8internal2RE7patternEv
FN:2138,_ZN7testing8internal8GTestLog9GetStreamEv
FN:2150,_ZN7testing8internal11LogToStderrEv
FN:2151,_ZN7testing8internal12FlushInfoLogEv
FN:2205,_ZN7testing8internal13ImplicitCast_IPKvEET_S4_
FN:2252,_ZN7testing8internal27CheckedDowncastToActualTypeINS0_11ThreadLocalISt6vectorINS0_9TraceInfoESaIS4_EEE11ValueHolderENS0_26ThreadLocalValueHolderBaseEEEPT_PT0_
FN:2252,_ZN7testing8internal27CheckedDowncastToActualTypeINS0_11ThreadLocalIPNS_31TestPartResultReporterInterfaceEE11ValueHolderENS0_26ThreadLocalValueHolderBaseEEEPT_PT0_
FN:2443,_ZN7testing8internal9MutexBaseC2Ev
FN:2446,_ZN7testing8internal9MutexBase4LockEv
FN:2453,_ZN7testing8internal9MutexBase6UnlockEv
FN:2503,_ZN7testing8internal5MutexC2Ev
FN:2507,_ZN7testing8internal5MutexD2Ev
FN:2520,_ZN7testing8internal14GTestMutexLockC2EPNS0_9MutexBaseE
FN:2523,_ZN7testing8internal14GTestMutexLockD2Ev
FN:2539,_ZN7testing8internal26ThreadLocalValueHolderBaseC2Ev
FN:2541,_ZN7testing8internal26ThreadLocalValueHolderBaseD0Ev
FN:2541,_ZN7testing8internal26ThreadLocalValueHolderBaseD2Ev
FN:2546,DeleteThreadLocalValue
FN:2582,_ZN7testing8internal11ThreadLocalISt6vectorINS0_9TraceInfoESaIS3_EEEC2Ev
FN:2584,_ZN7testing8internal11ThreadLocalIPNS_31TestPartResultReporterInterfaceEEC2ERKS3_
FN:2587,_ZN7testing8internal11ThreadLocalIPNS_31TestPartResultReporterInterfaceEED2Ev
FN:2587,_ZN7testing8internal11ThreadLocalISt6vectorINS0_9TraceInfoESaIS3_EEED2Ev
FN:2596,_ZN7testing8internal11ThreadLocalIPNS_31TestPartResultReporterInterfaceEE7pointerEv
FN:2596,_ZN7testing8internal11ThreadLocalISt6vectorINS0_9TraceInfoESaIS3_EEE7pointerEv
FN:2597,_ZNK7testing8internal11ThreadLocalIPNS_31TestPartResultReporterInterfaceEE7pointerEv
FN:2598,_ZNK7testing8internal11ThreadLocalIPNS_31TestPartResultReporterInterfaceEE3getEv
FN:2599,_ZN7testing8internal11ThreadLocalIPNS_31TestPartResultReporterInterfaceEE3setERKS3_
FN:2603,_ZN7testing8internal11ThreadLocalIPNS_31TestPartResultReporterInterfaceEE11ValueHolderD0Ev
FN:2603,_ZN7testing8internal11ThreadLocalISt6vectorINS0_9TraceInfoESaIS3_EEE11ValueHolderD0Ev
FN:2603,_ZN7testing8internal11ThreadLocalISt6vectorINS0_9TraceInfoESaIS3_EEE11ValueHolderD2Ev
FN:2603,_ZN7testing8internal11ThreadLocalIPNS_31TestPartResultReporterInterfaceEE11ValueHolderD2Ev
FN:2605,_ZN7testing8internal11ThreadLocalISt6vectorINS0_9TraceInfoESaIS3_EEE11ValueHolderC2ERKS5_
FN:2605,_ZN7testing8internal11ThreadLocalIPNS_31TestPartResultReporterInterfaceEE11ValueHolderC2ERKS3_
FN:2607,_ZN7testing8internal11ThreadLocalISt6vectorINS0_9TraceInfoESaIS3_EEE11ValueHolder7pointerEv
FN:2607,_ZN7testing8internal11ThreadLocalIPNS_31TestPartResultReporterInterfaceEE11ValueHolder7pointerEv
FN:2614,_ZN7testing8internal11ThreadLocalISt6vectorINS0_9TraceInfoESaIS3_EEE9CreateKeyEv
FN:2614,_ZN7testing8internal11ThreadLocalIPNS_31TestPartResultReporterInterfaceEE9CreateKeyEv
FN:2623,_ZNK7testing8internal11ThreadLocalIPNS_31TestPartResultReporterInterfaceEE16GetOrCreateValueEv
FN:2623,_ZNK7testing8internal11ThreadLocalISt6vectorINS0_9TraceInfoESaIS3_EEE16GetOrCreateValueEv
FN:2772,_ZN7testing8internal7IsDigitEc
FN:2778,_ZN7testing8internal7IsSpaceEc
FN:2784,_ZN7testing8internal8IsXDigitEc
FN:2787,_ZN7testing8internal8IsXDigitEw
FN:2795,_ZN7testing8internal7ToUpperEc
FN:2848,_ZN7testing8internal5posix6FileNoEP8_IO_FILE
FN:2849,_ZN7testing8internal5posix6IsATTYEi
FN:2850,_ZN7testing8internal5posix4StatEPKcP4stat
FN:2851,_ZN7testing8internal5posix10StrCaseCmpEPKcS3_
FN:2854,_ZN7testing8internal5posix6StrDupEPKc
FN:2856,_ZN7testing8internal5posix5IsDirERK4stat
FN:2879,_ZN7testing8internal5posix5FOpenEPKcS3_
FN:2886,_ZN7testing8internal5posix6FDOpenEiPKc
FN:2888,_ZN7testing8internal5posix6FCloseEP8_IO_FILE
FN:2890,_ZN7testing8internal5posix4ReadEiPvj
FN:2893,_ZN7testing8internal5posix5WriteEiPKvj
FN:2896,_ZN7testing8internal5posix5CloseEi
FN:2897,_ZN7testing8internal5posix8StrErrorEi
FN:2899,_ZN7testing8internal5posix6GetEnvEPKc
FN:2923,_ZN7testing8internal5posix5AbortEv
FN:3157,_ZN7testing7MessageD2Ev
FN:3168,_ZN7testing7MessageC2ERKS0_
FN:3187,_ZN7testing7MessagelsIA53_cEERS0_RKT_
FN:3187,_ZN7testing7MessagelsIcEERS0_RKT_
FN:3187,_ZN7testing7MessagelsIA7_cEERS0_RKT_
FN:3187,_ZN7testing7MessagelsIA17_cEERS0_RKT_
FN:3187,_ZN7testing7MessagelsIA15_cEERS0_RKT_
FN:3187,_ZN7testing7MessagelsIA20_cEERS0_RKT_
FN:3187,_ZN7testing7MessagelsIA34_cEERS0_RKT_
FN:3187,_ZN7testing7MessagelsIA6_cEERS0_RKT_
FN:3187,_ZN7testing7MessagelsIA13_cEERS0_RKT_
FN:3187,_ZN7testing7MessagelsIA10_cEERS0_RKT_
FN:3187,_ZN7testing7MessagelsIA14_cEERS0_RKT_
FN:3187,_ZN7testing7MessagelsIA59_cEERS0_RKT_
FN:3187,_ZN7testing7MessagelsIA3_cEERS0_RKT_
FN:3187,_ZN7testing7MessagelsIA48_cEERS0_RKT_
FN:3187,_ZN7testing7MessagelsIA18_cEERS0_RKT_
FN:3187,_ZN7testing7MessagelsIA16_cEERS0_RKT_
FN:3187,_ZN7testing7MessagelsIA31_cEERS0_RKT_
FN:3187,_ZN7testing7MessagelsIA9_cEERS0_RKT_
FN:3187,_ZN7testing7MessagelsImEERS0_RKT_
FN:3187,_ZN7testing7MessagelsIA68_cEERS0_RKT_
FN:3187,_ZN7testing7MessagelsIA51_cEERS0_RKT_
FN:3187,_ZN7testing7MessagelsIA30_cEERS0_RKT_
FN:3187,_ZN7testing7MessagelsIA39_cEERS0_RKT_
FN:3187,_ZN7testing7MessagelsIA4_cEERS0_RKT_
FN:3187,_ZN7testing7MessagelsIA256_cEERS0_RKT_
FN:3187,_ZN7testing7MessagelsIS0_EERS0_RKT_
FN:3187,_ZN7testing7MessagelsIA52_cEERS0_RKT_
FN:3187,_ZN7testing7MessagelsIA63_cEERS0_RKT_
FN:3187,_ZN7testing7MessagelsIA19_cEERS0_RKT_
FN:3187,_ZN7testing7MessagelsIA24_cEERS0_RKT_
FN:3187,_ZN7testing7MessagelsIA40_cEERS0_RKT_
FN:3187,_ZN7testing7MessagelsIA37_cEERS0_RKT_
FN:3187,_ZN7testing7MessagelsIA41_cEERS0_RKT_
FN:3187,_ZN7testing7MessagelsIA21_cEERS0_RKT_
FN:3187,_ZN7testing7MessagelsIA12_cEERS0_RKT_
FN:3187,_ZN7testing7MessagelsIA2_cEERS0_RKT_
FN:3187,_ZN7testing7MessagelsINS_14TestPartResultEEERS0_RKT_
FN:3187,_ZN7testing7MessagelsIA64_cEERS0_RKT_
FN:3187,_ZN7testing7MessagelsIA8_cEERS0_RKT_
FN:3187,_ZN7testing7MessagelsIA62_cEERS0_RKT_
FN:3187,_ZN7testing7MessagelsIiEERS0_RKT_
FN:3187,_ZN7testing7MessagelsIA29_cEERS0_RKT_
FN:3187,_ZN7testing7MessagelsIA50_cEERS0_RKT_
FN:3187,_ZN7testing7MessagelsINSt7__cxx1112basic_stringIcSt11char_traitsIcESaIcEEEEERS0_RKT_
FN:3187,_ZN7testing7MessagelsIA35_cEERS0_RKT_
FN:3187,_ZN7testing7MessagelsIA47_cEERS0_RKT_
FN:3187,_ZN7testing7MessagelsIA25_cEERS0_RKT_
FN:3187,_ZN7testing7MessagelsIdEERS0_RKT_
FN:3187,_ZN7testing7MessagelsIA33_cEERS0_RKT_
FN:3187,_ZN7testing7MessagelsIxEERS0_RKT_
FN:3187,_ZN7testing7MessagelsIA11_cEERS0_RKT_
FN:3187,_ZN7testing7MessagelsIA22_cEERS0_RKT_
FN:3187,_ZN7testing7MessagelsIA5_cEERS0_RKT_
FN:3187,_ZN7testing7MessagelsIA28_cEERS0_RKT_
FN:3221,_ZN7testing7MessagelsIKcEERS0_RKPT_
FN:3221,_ZN7testing7MessagelsIcEERS0_RKPT_
FN:3304,_ZN7testinglsERSoRKNS_7MessageE
FN:3315,_ZN7testing8internal18StreamableToStringIiEENSt7__cxx1112basic_stringIcSt11char_traitsIcESaIcEEERKT_
FN:3315,_ZN7testing8internal18StreamableToStringIPcEENSt7__cxx1112basic_stringIcSt11char_traitsIcESaIcEEERKT_
FN:3315,_ZN7testing8internal18StreamableToStringIPwEENSt7__cxx1112basic_stringIcSt11char_traitsIcESaIcEEERKT_
FN:3315,_ZN7testing8internal18StreamableToStringIxEENSt7__cxx1112basic_stringIcSt11char_traitsIcESaIcEEERKT_
FN:3546,_ZN7testing8internal8FilePathD2Ev
FN:3548,_ZN7testing8internal8FilePathC2Ev
FN:3549,_ZN7testing8internal8FilePathC2ERKS1_
FN:3551,_ZN7testing8internal8FilePathC2ERKNSt7__cxx1112basic_stringIcSt11char_traitsIcESaIcEEE
FN:3555,_ZN7testing8internal8FilePathaSERKS1_
FN:3560,_ZN7testing8internal8FilePath3SetERKS1_
FN:3564,_ZNK7testing8internal8FilePath6stringB5cxx11Ev
FN:3565,_ZNK7testing8internal8FilePath5c_strEv
FN:3598,_ZNK7testing8internal8FilePath7IsEmptyEv
FN:7108,_ZN7testing8internal26GoogleTestFailureExceptionD2Ev
FN:7108,_ZN7testing8internal26GoogleTestFailureExceptionD0Ev
FN:7240,_ZN7testing8internal13FloatingPointIfEC2ERKf
FN:7240,_ZN7testing8internal13FloatingPointIdEC2ERKd
FN:7267,_ZNK7testing8internal13FloatingPointIfE13exponent_bitsEv
FN:7267,_ZNK7testing8internal13FloatingPointIdE13exponent_bitsEv
FN:7270,_ZNK7testing8internal13FloatingPointIdE13fraction_bitsEv
FN:7270,_ZNK7testing8internal13FloatingPointIfE13fraction_bitsEv
FN:7276,_ZNK7testing8internal13FloatingPointIdE6is_nanEv
FN:7276,_ZNK7testing8internal13FloatingPointIfE6is_nanEv
FN:7288,_ZNK7testing8internal13FloatingPointIfE12AlmostEqualsERKS2_
FN:7288,_ZNK7testing8internal13FloatingPointIdE12AlmostEqualsERKS2_
FN:7319,_ZN7testing8internal13FloatingPointIdE24SignAndMagnitudeToBiasedERKy
FN:7319,_ZN7testing8internal13FloatingPointIfE24SignAndMagnitudeToBiasedERKj
FN:7331,_ZN7testing8internal13FloatingPointIdE38DistanceBetweenSignAndMagnitudeNumbersERKyS4_
FN:7331,_ZN7testing8internal13FloatingPointIfE38DistanceBetweenSignAndMagnitudeNumbersERKjS4_
FN:7377,_ZN7testing8internal9GetTypeIdINS_4TestEEEPKvv
FN:7502,_ZN7testing8internal9SkipCommaEPKc
FN:7513,_ZN7testing8internal19GetPrefixUntilCommaB5cxx11EPKc
FN:7620,_ZN7testing8internal11AlwaysFalseEv
FN:7640,_ZN7testing8internal6RandomC2Ej
FN:7642,_ZN7testing8internal6Random6ReseedEj
FN:7829,_ZN7testing8internal15IsContainerTestIxEEcl
FN:8239,_ZN7testing8internal9DeathTestD2Ev
FN:8239,_ZN7testing8internal9DeathTestD0Ev
FN:8297,_ZN7testing8internal16DeathTestFactoryC2Ev
FN:8299,_ZN7testing8internal16DeathTestFactoryD0Ev
FN:8299,_ZN7testing8internal16DeathTestFactoryD2Ev
FN:8305,_ZN7testing8internal23DefaultDeathTestFactoryD0Ev
FN:8305,_ZN7testing8internal23DefaultDeathTestFactoryD2Ev
FN:8305,_ZN7testing8internal23DefaultDeathTestFactoryC2Ev
FN:8393,_ZN7testing8internal24InternalRunDeathTestFlagC2ERKNSt7__cxx1112basic_stringIcSt11char_traitsIcESaIcEEEiii
FN:8400,_ZN7testing8internal24InternalRunDeathTestFlagD2Ev
FN:8405,_ZNK7testing8internal24InternalRunDeathTestFlag4fileB5cxx11Ev
FN:8406,_ZNK7testing8internal24InternalRunDeathTestFlag4lineEv
FN:8407,_ZNK7testing8internal24InternalRunDeathTestFlag5indexEv
FN:8408,_ZNK7testing8internal24InternalRunDeathTestFlag8write_fdEv
FN:9409,_ZN16testing_internal26DefaultPrintNonContainerToIxEEvRKT_PSo
FN:9526,_ZN7testing8internal14DefaultPrintToIxEEvcNS0_13bool_constantILb0EEERKT_PSo
FN:9544,_ZN7testing8internal7PrintToIxEEvRKT_PSo
FN:9655,_ZN7testing8internal7PrintToERKNSt7__cxx1112basic_stringIcSt11char_traitsIcESaIcEEEPSo
FN:9669,_ZN7testing8internal7PrintToERKNSt7__cxx1112basic_stringIwSt11char_traitsIwESaIwEEEPSo
FN:9782,_ZN7testing8internal16UniversalPrinterIxE5PrintERKxPSo
FN:9782,_ZN7testing8internal16UniversalPrinterINSt7__cxx1112basic_stringIcSt11char_traitsIcESaIcEEEE5PrintERKS7_PSo
FN:9782,_ZN7testing8internal16UniversalPrinterINSt7__cxx1112basic_stringIwSt11char_traitsIwESaIwEEEE5PrintERKS7_PSo
FN:9874,_ZN7testing8internal21UniversalTersePrinterIxE5PrintERKxPSo
FN:9895,_ZN7testing8internal21UniversalTersePrinterIPKcE5PrintES3_PSo
FN:9915,_ZN7testing8internal21UniversalTersePrinterIPKwE5PrintES3_PSo
FN:9943,_ZN7testing8internal14UniversalPrintIxEEvRKT_PSo
FN:9943,_ZN7testing8internal14UniversalPrintINSt7__cxx1112basic_stringIcSt11char_traitsIcESaIcEEEEEvRKT_PSo
FN:9943,_ZN7testing8internal14UniversalPrintINSt7__cxx1112basic_stringIwSt11char_traitsIwESaIwEEEEEvRKT_PSo
FN:10038,_ZN7testing13PrintToStringIxEENSt7__cxx1112basic_stringIcSt11char_traitsIcESaIcEEERKT_
FN:10038,_ZN7testing13PrintToStringIPKwEENSt7__cxx1112basic_stringIcSt11char_traitsIcESaIcEEERKT_
FN:10038,_ZN7testing13PrintToStringIPKcEENSt7__cxx1112basic_stringIcSt11char_traitsIcESaIcEEERKT_
FN:10557,_ZN7testing8internal29ParameterizedTestCaseRegistryC2Ev
FN:10558,_ZN7testing8internal29ParameterizedTestCaseRegistryD2Ev
FN:10598,_ZN7testing8internal29ParameterizedTestCaseRegistry13RegisterTestsEv
FN:17090,_ZN7testing14TestPartResultC2ERKS0_
FN:17090,_ZN7testing14TestPartResultD2Ev
FN:17090,_ZN7testing14TestPartResultC2EOS0_
FN:17103,_ZN7testing14TestPartResultC2ENS0_4TypeEPKciS3_
FN:17115,_ZNK7testing14TestPartResult4typeEv
FN:17119,_ZNK7testing14TestPartResult9file_nameEv
FN:17125,_ZNK7testing14TestPartResult11line_numberEv
FN:17128,_ZNK7testing14TestPartResult7summaryEv
FN:17131,_ZNK7testing14TestPartResult7messageEv
FN:17137,_ZNK7testing14TestPartResult6failedEv
FN:17140,_ZNK7testing14TestPartResult17nonfatally_failedEv
FN:17143,_ZNK7testing14TestPartResult14fatally_failedEv
FN:17189,_ZN7testing31TestPartResultReporterInterfaceC2Ev
FN:17191,_ZN7testing31TestPartResultReporterInterfaceD0Ev
FN:17191,_ZN7testing31TestPartResultReporterInterfaceD2Ev
FN:17669,_ZN7testing15AssertionResultD2Ev
FN:17675,_ZN7testing15AssertionResultC2Eb
FN:17678,_ZNK7testing15AssertionResultcvbEv
FN:17687,_ZNK7testing15AssertionResult7messageEv
FN:17692,_ZNK7testing15AssertionResult15failure_messageEv
FN:17695,_ZN7testing15AssertionResultlsIA12_cEERS0_RKT_
FN:17695,_ZN7testing15AssertionResultlsIA6_cEERS0_RKT_
FN:17695,_ZN7testing15AssertionResultlsIA16_cEERS0_RKT_
FN:17695,_ZN7testing15AssertionResultlsIA15_cEERS0_RKT_
FN:17695,_ZN7testing15AssertionResultlsIA2_cEERS0_RKT_
FN:17695,_ZN7testing15AssertionResultlsIA13_cEERS0_RKT_
FN:17695,_ZN7testing15AssertionResultlsIA5_cEERS0_RKT_
FN:17695,_ZN7testing15AssertionResultlsIdEERS0_RKT_
FN:17695,_ZN7testing15AssertionResultlsIPKcEERS0_RKT_
FN:17695,_ZN7testing15AssertionResultlsINSt7__cxx1112basic_stringIwSt11char_traitsIwESaIwEEEEERS0_RKT_
FN:17695,_ZN7testing15AssertionResultlsIA14_cEERS0_RKT_
FN:17695,_ZN7testing15AssertionResultlsIPKwEERS0_RKT_
FN:17695,_ZN7testing15AssertionResultlsINSt7__cxx1112basic_stringIcSt11char_traitsIcESaIcEEEEERS0_RKT_
FN:17695,_ZN7testing15AssertionResultlsIA11_cEERS0_RKT_
FN:17695,_ZN7testing15AssertionResultlsIA29_cEERS0_RKT_
FN:17695,_ZN7testing15AssertionResultlsIA9_cEERS0_RKT_
FN:17695,_ZN7testing15AssertionResultlsIA3_cEERS0_RKT_
FN:17695,_ZN7testing15AssertionResultlsIA17_cEERS0_RKT_
FN:17695,_ZN7testing15AssertionResultlsIA7_cEERS0_RKT_
FN:17695,_ZN7testing15AssertionResultlsINS_14TestPartResultEEERS0_RKT_
FN:17695,_ZN7testing15AssertionResultlsIA24_cEERS0_RKT_
FN:17695,_ZN7testing15AssertionResultlsINS_7MessageEEERS0_RKT_
FN:17710,_ZN7testing15AssertionResult13AppendMessageERKNS_7MessageE
FN:17842,_ZN7testing4Test11DeleteSelf_Ev
FN:17864,_ZN7testing4Test5SetupEv
FN:17876,_ZN7testing12TestPropertyD2Ev
FN:17876,_ZN7testing12TestPropertyC2ERKS0_
FN:17876,_ZN7testing12TestPropertyC2EOS0_
FN:17881,_ZN7testing12TestPropertyC2ERKNSt7__cxx1112basic_stringIcSt11char_traitsIcESaIcEEES8_
FN:17886,_ZNK7testing12TestProperty3keyEv
FN:17891,_ZNK7testing12TestProperty5valueEv
FN:17896,_ZN7testing12TestProperty8SetValueERKNSt7__cxx1112basic_stringIcSt11char_traitsIcESaIcEEE
FN:17929,_ZNK7testing10TestResult6PassedEv
FN:17941,_ZNK7testing10TestResult12elapsed_timeEv
FN:17974,_ZN7testing10TestResult16set_elapsed_timeEx
FN:17995,_ZNK7testing10TestResult16death_test_countEv
FN:17998,_ZN7testing10TestResult26increment_death_test_countEv
FN:18041,_ZNK7testing8TestInfo14test_case_nameEv
FN:18044,_ZNK7testing8TestInfo4nameEv
FN:18048,_ZNK7testing8TestInfo10type_paramEv
FN:18056,_ZNK7testing8TestInfo11value_paramEv
FN:18078,_ZNK7testing8TestInfo10should_runEv
FN:18081,_ZNK7testing8TestInfo13is_reportableEv
FN:18089,_ZNK7testing8TestInfo6resultEv
FN:18120,_ZN7testing8TestInfo26increment_death_test_countEv
FN:18128,_ZN7testing8TestInfo15ClearTestResultEPS0_
FN:18181,_ZNK7testing8TestCase4nameEv
FN:18185,_ZNK7testing8TestCase10type_paramEv
FN:18192,_ZNK7testing8TestCase10should_runEv
FN:18216,_ZNK7testing8TestCase6PassedEv
FN:18219,_ZNK7testing8TestCase6FailedEv
FN:18222,_ZNK7testing8TestCase12elapsed_timeEv
FN:18230,_ZNK7testing8TestCase18ad_hoc_test_resultEv
FN:18237,_ZN7testing8TestCase14test_info_listEv
FN:18240,_ZNK7testing8TestCase14test_info_listEv
FN:18249,_ZN7testing8TestCase14set_should_runEb
FN:18259,_ZN7testing8TestCase19ClearTestCaseResultEPS0_
FN:18268,_ZN7testing8TestCase16RunSetUpTestCaseEv
FN:18272,_ZN7testing8TestCase19RunTearDownTestCaseEv
FN:18275,_ZN7testing8TestCase10TestPassedEPKNS_8TestInfoE
FN:18280,_ZN7testing8TestCase10TestFailedEPKNS_8TestInfoE
FN:18286,_ZN7testing8TestCase22TestReportableDisabledEPKNS_8TestInfoE
FN:18291,_ZN7testing8TestCase12TestDisabledEPKNS_8TestInfoE
FN:18296,_ZN7testing8TestCase14TestReportableEPKNS_8TestInfoE
FN:18301,_ZN7testing8TestCase13ShouldRunTestEPKNS_8TestInfoE
FN:18372,_ZN7testing17TestEventListenerC2Ev
FN:18374,_ZN7testing17TestEventListenerD0Ev
FN:18374,_ZN7testing17TestEventListenerD2Ev
FN:18425,_ZN7testing22EmptyTestEventListenerD0Ev
FN:18425,_ZN7testing22EmptyTestEventListenerD2Ev
FN:18425,_ZN7testing22EmptyTestEventListenerC2Ev
FN:18427,_ZN7testing22EmptyTestEventListener18OnTestProgramStartERKNS_8UnitTestE
FN:18428,_ZN7testing22EmptyTestEventListener20OnTestIterationStartERKNS_8UnitTestEi
FN:18430,_ZN7testing22EmptyTestEventListener24OnEnvironmentsSetUpStartERKNS_8UnitTestE
FN:18431,_ZN7testing22EmptyTestEventListener22OnEnvironmentsSetUpEndERKNS_8UnitTestE
FN:18432,_ZN7testing22EmptyTestEventListener15OnTestCaseStartERKNS_8TestCaseE
FN:18433,_ZN7testing22EmptyTestEventListener11OnTestStartERKNS_8TestInfoE
FN:18434,_ZN7testing22EmptyTestEventListener16OnTestPartResultERKNS_14TestPartResultE
FN:18435,_ZN7testing22EmptyTestEventListener9OnTestEndERKNS_8TestInfoE
FN:18436,_ZN7testing22EmptyTestEventListener13OnTestCaseEndERKNS_8TestCaseE
FN:18437,_ZN7testing22EmptyTestEventListener27OnEnvironmentsTearDownStartERKNS_8UnitTestE
FN:18438,_ZN7testing22EmptyTestEventListener25OnEnvironmentsTearDownEndERKNS_8UnitTestE
FN:18439,_ZN7testing22EmptyTestEventListener18OnTestIterationEndERKNS_8UnitTestEi
FN:18441,_ZN7testing22EmptyTestEventListener16OnTestProgramEndERKNS_8UnitTestE
FN:18668,_ZN7testing8UnitTest4implEv
FN:18669,_ZNK7testing8UnitTest4implEv
FN:18770,_ZN7testing8internal19FormatForComparisonIxxE6FormatERKx
FN:18844,_ZN7testing8internal33FormatForComparisonFailureMessageIxxEENSt7__cxx1112basic_stringIcSt11char_traitsIcESaIcEEERKT_RKT0_
FN:19154,_ZN7testing8internal12AssertHelper16AssertHelperDataD2Ev
FN:19155,_ZN7testing8internal12AssertHelper16AssertHelperDataC2ENS_14TestPartResult4TypeEPKciS6_
FNDA:10,_ZN7testing8internal10scoped_ptrINS0_16DeathTestFactoryEEC2EPS2_
FNDA:10,_ZN7testing8internal10scoped_ptrINS0_24InternalRunDeathTestFlagEEC2EPS2_
FNDA:1288,_ZN7testing8internal10scoped_ptrIKNSt7__cxx1112basic_stringIcSt11char_traitsIcESaIcEEEEC2EPS8_
FNDA:0,_ZN7testing8internal10scoped_ptrINS0_17StreamingListener20AbstractSocketWriterEEC2EPS3_
FNDA:0,_ZN7testing8internal10scoped_ptrINSt7__cxx1112basic_stringIcSt11char_traitsIcESaIcEEEEC2EPS7_
FNDA:1097,_ZN7testing8internal10scoped_ptrINSt7__cxx1118basic_stringstreamIcSt11char_traitsIcESaIcEEEEC2EPS7_
FNDA:0,_ZN7testing8internal10scoped_ptrINS0_16DeathTestFactoryEED2Ev
FNDA:0,_ZN7testing8internal10scoped_ptrINS0_24InternalRunDeathTestFlagEED2Ev
FNDA:0,_ZN7testing8internal10scoped_ptrIKNSt7__cxx1112basic_stringIcSt11char_traitsIcESaIcEEEED2Ev
FNDA:0,_ZN7testing8internal10scoped_ptrINS0_17StreamingListener20AbstractSocketWriterEED2Ev
FNDA:0,_ZN7testing8internal10scoped_ptrINSt7__cxx1112basic_stringIcSt11char_traitsIcESaIcEEEED2Ev
FNDA:0,_ZN7testing8internal10scoped_ptrINSt7__cxx1118basic_stringstreamIcSt11char_traitsIcESaIcEEEED2Ev
FNDA:7,_ZNK7testing8internal10scoped_ptrINSt7__cxx1112basic_stringIcSt11char_traitsIcESaIcEEEEdeEv
FNDA:0,_ZNK7testing8internal10scoped_ptrINSt7__cxx1118basic_stringstreamIcSt11char_traitsIcESaIcEEEEdeEv
FNDA:0,_ZNK7testing8internal10scoped_ptrINS0_17StreamingListener20AbstractSocketWriterEEptEv
FNDA:0,_ZNK7testing8internal10scoped_ptrIKNSt7__cxx1112basic_stringIcSt11char_traitsIcESaIcEEEEptEv
FNDA:0,_ZNK7testing8internal10scoped_ptrINSt7__cxx1112basic_stringIcSt11char_traitsIcESaIcEEEEptEv
FNDA:1097,_ZNK7testing8internal10scoped_ptrINSt7__cxx1118basic_stringstreamIcSt11char_traitsIcESaIcEEEE3getEv
FNDA:0,_ZNK7testing8internal10scoped_ptrINS0_16DeathTestFactoryEE3getEv
FNDA:20,_ZNK7testing8internal10scoped_ptrINS0_24InternalRunDeathTestFlagEE3getEv
FNDA:673,_ZNK7testing8internal10scoped_ptrIKNSt7__cxx1112basic_stringIcSt11char_traitsIcESaIcEEEE3getEv
FNDA:0,_ZNK7testing8internal10scoped_ptrINSt7__cxx1112basic_stringIcSt11char_traitsIcESaIcEEEE3getEv
FNDA:0,_ZN7testing8internal10scoped_ptrINS0_16DeathTestFactoryEE5resetEPS2_
FNDA:0,_ZN7testing8internal10scoped_ptrIKNSt7__cxx1112basic_stringIcSt11char_traitsIcESaIcEEEE5resetEPS8_
FNDA:0,_ZN7testing8internal10scoped_ptrINS0_17StreamingListener20AbstractSocketWriterEE5resetEPS3_
FNDA:0,_ZN7testing8internal10scoped_ptrINSt7__cxx1118basic_stringstreamIcSt11char_traitsIcESaIcEEEE5resetEPS7_
FNDA:10,_ZN7testing8internal10scoped_ptrINS0_24InternalRunDeathTestFlagEE5resetEPS2_
FNDA:0,_ZN7testing8internal10scoped_ptrINSt7__cxx1112basic_stringIcSt11char_traitsIcESaIcEEEE5resetEPS7_
FNDA:0,_ZNK7testing8internal2RE7patternEv
FNDA:0,_ZN7testing8internal8GTestLog9GetStreamEv
FNDA:0,_ZN7testing8internal11LogToStderrEv
FNDA:0,_ZN7testing8internal12FlushInfoLogEv
FNDA:0,_ZN7testing8internal13ImplicitCast_IPKvEET_S4_
FNDA:1,_ZN7testing8internal27CheckedDowncastToActualTypeINS0_11ThreadLocalIPNS_31TestPartResultReporterInterfaceEE11ValueHolderENS0_26ThreadLocalValueHolderBaseEEEPT_PT0_
FNDA:1,_ZN7testing8internal27CheckedDowncastToActualTypeINS0_11ThreadLocalISt6vectorINS0_9TraceInfoESaIS4_EEE11ValueHolderENS0_26ThreadLocalValueHolderBaseEEEPT_PT0_
FNDA:689,_ZN7testing8internal9MutexBaseC2Ev
FNDA:14,_ZN7testing8internal9MutexBase4LockEv
FNDA:14,_ZN7testing8internal9MutexBase6UnlockEv
FNDA:689,_ZN7testing8internal5MutexC2Ev
FNDA:0,_ZN7testing8internal5MutexD2Ev
FNDA:14,_ZN7testing8internal14GTestMutexLockC2EPNS0_9MutexBaseE
FNDA:14,_ZN7testing8internal14GTestMutexLockD2Ev
FNDA:12,_ZN7testing8internal26ThreadLocalValueHolderBaseC2Ev
FNDA:0,_ZN7testing8internal26ThreadLocalValueHolderBaseD0Ev
FNDA:0,_ZN7testing8internal26ThreadLocalValueHolderBaseD2Ev
FNDA:0,DeleteThreadLocalValue
FNDA:10,_ZN7testing8internal11ThreadLocalISt6vectorINS0_9TraceInfoESaIS3_EEEC2Ev
FNDA:10,_ZN7testing8internal11ThreadLocalIPNS_31TestPartResultReporterInterfaceEEC2ERKS3_
FNDA:0,_ZN7testing8internal11ThreadLocalISt6vectorINS0_9TraceInfoESaIS3_EEED2Ev
FNDA:0,_ZN7testing8internal11ThreadLocalIPNS_31TestPartResultReporterInterfaceEED2Ev
FNDA:0,_ZN7testing8internal11ThreadLocalIPNS_31TestPartResultReporterInterfaceEE7pointerEv
FNDA:7,_ZN7testing8internal11ThreadLocalISt6vectorINS0_9TraceInfoESaIS3_EEE7pointerEv
FNDA:7,_ZNK7testing8internal11ThreadLocalIPNS_31TestPartResultReporterInterfaceEE7pointerEv
FNDA:7,_ZNK7testing8internal11ThreadLocalIPNS_31TestPartResultReporterInterfaceEE3getEv
FNDA:0,_ZN7testing8internal11ThreadLocalIPNS_31TestPartResultReporterInterfaceEE3setERKS3_
FNDA:0,_ZN7testing8internal11ThreadLocalISt6vectorINS0_9TraceInfoESaIS3_EEE11ValueHolderD0Ev
FNDA:0,_ZN7testing8internal11ThreadLocalISt6vectorINS0_9TraceInfoESaIS3_EEE11ValueHolderD2Ev
FNDA:0,_ZN7testing8internal11ThreadLocalIPNS_31TestPartResultReporterInterfaceEE11ValueHolderD0Ev
FNDA:0,_ZN7testing8internal11ThreadLocalIPNS_31TestPartResultReporterInterfaceEE11ValueHolderD2Ev
FNDA:6,_ZN7testing8internal11ThreadLocalIPNS_31TestPartResultReporterInterfaceEE11ValueHolderC2ERKS3_
FNDA:6,_ZN7testing8internal11ThreadLocalISt6vectorINS0_9TraceInfoESaIS3_EEE11ValueHolderC2ERKS5_
FNDA:7,_ZN7testing8internal11ThreadLocalIPNS_31TestPartResultReporterInterfaceEE11ValueHolder7pointerEv
FNDA:7,_ZN7testing8internal11ThreadLocalISt6vectorINS0_9TraceInfoESaIS3_EEE11ValueHolder7pointerEv
FNDA:10,_ZN7testing8internal11ThreadLocalISt6vectorINS0_9TraceInfoESaIS3_EEE9CreateKeyEv
FNDA:10,_ZN7testing8internal11ThreadLocalIPNS_31TestPartResultReporterInterfaceEE9CreateKeyEv
FNDA:7,_ZNK7testing8internal11ThreadLocalIPNS_31TestPartResultReporterInterfaceEE16GetOrCreateValueEv
FNDA:7,_ZNK7testing8internal11ThreadLocalISt6vectorINS0_9TraceInfoESaIS3_EEE16GetOrCreateValueEv
FNDA:0,_ZN7testing8internal7IsDigitEc
FNDA:0,_ZN7testing8internal7IsSpaceEc
FNDA:0,_ZN7testing8internal8IsXDigitEc
FNDA:0,_ZN7testing8internal8IsXDigitEw
FNDA:2800,_ZN7testing8internal7ToUpperEc
FNDA:10,_ZN7testing8internal5posix6FileNoEP8_IO_FILE
FNDA:10,_ZN7testing8internal5posix6IsATTYEi
FNDA:0,_ZN7testing8internal5posix4StatEPKcP4stat
FNDA:10,_ZN7testing8internal5posix10StrCaseCmpEPKcS3_
FNDA:0,_ZN7testing8internal5posix6StrDupEPKc
FNDA:0,_ZN7testing8internal5posix5IsDirERK4stat
FNDA:0,_ZN7testing8internal5posix5FOpenEPKcS3_
FNDA:0,_ZN7testing8internal5posix6FDOpenEiPKc
FNDA:0,_ZN7testing8internal5posix6FCloseEP8_IO_FILE
FNDA:0,_ZN7testing8internal5posix4ReadEiPvj
FNDA:0,_ZN7testing8internal5posix5WriteEiPKvj
FNDA:0,_ZN7testing8internal5posix5CloseEi
FNDA:0,_ZN7testing8internal5posix8StrErrorEi
FNDA:220,_ZN7testing8internal5posix6GetEnvEPKc
FNDA:0,_ZN7testing8internal5posix5AbortEv
FNDA:0,_ZN7testing7MessageD2Ev
FNDA:0,_ZN7testing7MessageC2ERKS0_
FNDA:0,_ZN7testing7MessagelsIA29_cEERS0_RKT_
FNDA:0,_ZN7testing7MessagelsIdEERS0_RKT_
FNDA:0,_ZN7testing7MessagelsIA14_cEERS0_RKT_
FNDA:659,_ZN7testing7MessagelsIxEERS0_RKT_
FNDA:0,_ZN7testing7MessagelsIA34_cEERS0_RKT_
FNDA:0,_ZN7testing7MessagelsIA20_cEERS0_RKT_
FNDA:0,_ZN7testing7MessagelsIA50_cEERS0_RKT_
FNDA:7,_ZN7testing7MessagelsIS0_EERS0_RKT_
FNDA:0,_ZN7testing7MessagelsIA52_cEERS0_RKT_
FNDA:0,_ZN7testing7MessagelsIA51_cEERS0_RKT_
FNDA:0,_ZN7testing7MessagelsIA47_cEERS0_RKT_
FNDA:0,_ZN7testing7MessagelsIA28_cEERS0_RKT_
FNDA:0,_ZN7testing7MessagelsIA256_cEERS0_RKT_
FNDA:0,_ZN7testing7MessagelsImEERS0_RKT_
FNDA:0,_ZN7testing7MessagelsIA53_cEERS0_RKT_
FNDA:0,_ZN7testing7MessagelsIA25_cEERS0_RKT_
FNDA:0,_ZN7testing7MessagelsIA21_cEERS0_RKT_
FNDA:0,_ZN7testing7MessagelsIA35_cEERS0_RKT_
FNDA:0,_ZN7testing7MessagelsIA16_cEERS0_RKT_
FNDA:0,_ZN7testing7MessagelsIA48_cEERS0_RKT_
FNDA:0,_ZN7testing7MessagelsIA9_cEERS0_RKT_
FNDA:0,_ZN7testing7MessagelsIA19_cEERS0_RKT_
FNDA:0,_ZN7testing7MessagelsIA41_cEERS0_RKT_
FNDA:0,_ZN7testing7MessagelsIA15_cEERS0_RKT_
FNDA:0,_ZN7testing7MessagelsIA8_cEERS0_RKT_
FNDA:0,_ZN7testing7MessagelsIA4_cEERS0_RKT_
FNDA:0,_ZN7testing7MessagelsIA7_cEERS0_RKT_
FNDA:0,_ZN7testing7MessagelsIA68_cEERS0_RKT_
FNDA:0,_ZN7testing7MessagelsIA13_cEERS0_RKT_
FNDA:0,_ZN7testing7MessagelsIA37_cEERS0_RKT_
FNDA:0,_ZN7testing7MessagelsIA22_cEERS0_RKT_
FNDA:0,_ZN7testing7MessagelsIA33_cEERS0_RKT_
FNDA:0,_ZN7testing7MessagelsIA63_cEERS0_RKT_
FNDA:0,_ZN7testing7MessagelsIA31_cEERS0_RKT_
FNDA:0,_ZN7testing7MessagelsIA62_cEERS0_RKT_
FNDA:0,_ZN7testing7MessagelsIA39_cEERS0_RKT_
FNDA:0,_ZN7testing7MessagelsIA30_cEERS0_RKT_
FNDA:0,_ZN7testing7MessagelsIA6_cEERS0_RKT_
FNDA:0,_ZN7testing7MessagelsIA24_cEERS0_RKT_
FNDA:0,_ZN7testing7MessagelsIA59_cEERS0_RKT_
FNDA:0,_ZN7testing7MessagelsIA64_cEERS0_RKT_
FNDA:0,_ZN7testing7MessagelsIA18_cEERS0_RKT_
FNDA:0,_ZN7testing7MessagelsIA40_cEERS0_RKT_
FNDA:0,_ZN7testing7MessagelsIA5_cEERS0_RKT_
FNDA:0,_ZN7testing7MessagelsIA3_cEERS0_RKT_
FNDA:0,_ZN7testing7MessagelsIA17_cEERS0_RKT_
FNDA:0,_ZN7testing7MessagelsIA12_cEERS0_RKT_
FNDA:2800,_ZN7testing7MessagelsIcEERS0_RKT_
FNDA:0,_ZN7testing7MessagelsINS_14TestPartResultEEERS0_RKT_
FNDA:0,_ZN7testing7MessagelsIA10_cEERS0_RKT_
FNDA:83,_ZN7testing7MessagelsIiEERS0_RKT_
FNDA:7,_ZN7testing7MessagelsIA2_cEERS0_RKT_
FNDA:0,_ZN7testing7MessagelsINSt7__cxx1112basic_stringIcSt11char_traitsIcESaIcEEEEERS0_RKT_
FNDA:7,_ZN7testing7MessagelsIA11_cEERS0_RKT_
FNDA:20,_ZN7testing7MessagelsIcEERS0_RKPT_
FNDA:0,_ZN7testing7MessagelsIKcEERS0_RKPT_
FNDA:7,_ZN7testinglsERSoRKNS_7MessageE
FNDA:0,_ZN7testing8internal18StreamableToStringIPwEENSt7__cxx1112basic_stringIcSt11char_traitsIcESaIcEEERKT_
FNDA:20,_ZN7testing8internal18StreamableToStringIPcEENSt7__cxx1112basic_stringIcSt11char_traitsIcESaIcEEERKT_
FNDA:659,_ZN7testing8internal18StreamableToStringIxEENSt7__cxx1112basic_stringIcSt11char_traitsIcESaIcEEERKT_
FNDA:83,_ZN7testing8internal18StreamableToStringIiEENSt7__cxx1112basic_stringIcSt11char_traitsIcESaIcEEERKT_
FNDA:10,_ZN7testing8internal8FilePathD2Ev
FNDA:10,_ZN7testing8internal8FilePathC2Ev
FNDA:0,_ZN7testing8internal8FilePathC2ERKS1_
FNDA:10,_ZN7testing8internal8FilePathC2ERKNSt7__cxx1112basic_stringIcSt11char_traitsIcESaIcEEE
FNDA:0,_ZN7testing8internal8FilePathaSERKS1_
FNDA:10,_ZN7testing8internal8FilePath3SetERKS1_
FNDA:0,_ZNK7testing8internal8FilePath6stringB5cxx11Ev
FNDA:0,_ZNK7testing8internal8FilePath5c_strEv
FNDA:649,_ZNK7testing8internal8FilePath7IsEmptyEv
FNDA:0,_ZN7testing8internal26GoogleTestFailureExceptionD0Ev
FNDA:0,_ZN7testing8internal26GoogleTestFailureExceptionD2Ev
FNDA:0,_ZN7testing8internal13FloatingPointIdEC2ERKd
FNDA:0,_ZN7testing8internal13FloatingPointIfEC2ERKf
FNDA:0,_ZNK7testing8internal13FloatingPointIdE13exponent_bitsEv
FNDA:0,_ZNK7testing8internal13FloatingPointIfE13exponent_bitsEv
FNDA:0,_ZNK7testing8internal13FloatingPointIdE13fraction_bitsEv
FNDA:0,_ZNK7testing8internal13FloatingPointIfE13fraction_bitsEv
FNDA:0,_ZNK7testing8internal13FloatingPointIdE6is_nanEv
FNDA:0,_ZNK7testing8internal13FloatingPointIfE6is_nanEv
FNDA:0,_ZNK7testing8internal13FloatingPointIdE12AlmostEqualsERKS2_
FNDA:0,_ZNK7testing8internal13FloatingPointIfE12AlmostEqualsERKS2_
FNDA:0,_ZN7testing8internal13FloatingPointIdE24SignAndMagnitudeToBiasedERKy
FNDA:0,_ZN7testing8internal13FloatingPointIfE24SignAndMagnitudeToBiasedERKj
FNDA:0,_ZN7testing8internal13FloatingPointIdE38DistanceBetweenSignAndMagnitudeNumbersERKyS4_
FNDA:0,_ZN7testing8internal13FloatingPointIfE38DistanceBetweenSignAndMagnitudeNumbersERKjS4_
FNDA:649,_ZN7testing8internal9GetTypeIdINS_4TestEEEPKvv
FNDA:0,_ZN7testing8internal9SkipCommaEPKc
FNDA:0,_ZN7testing8internal19GetPrefixUntilCommaB5cxx11EPKc
FNDA:0,_ZN7testing8internal11AlwaysFalseEv
FNDA:10,_ZN7testing8internal6RandomC2Ej
FNDA:0,_ZN7testing8internal6Random6ReseedEj
FNDA:0,_ZN7testing8internal15IsContainerTestIxEEcl
FNDA:0,_ZN7testing8internal9DeathTestD0Ev
FNDA:0,_ZN7testing8internal9DeathTestD2Ev
FNDA:10,_ZN7testing8internal16DeathTestFactoryC2Ev
FNDA:0,_ZN7testing8internal16DeathTestFactoryD0Ev
FNDA:0,_ZN7testing8internal16DeathTestFactoryD2Ev
FNDA:0,_ZN7testing8internal23DefaultDeathTestFactoryD0Ev
FNDA:0,_ZN7testing8internal23DefaultDeathTestFactoryD2Ev
FNDA:10,_ZN7testing8internal23DefaultDeathTestFactoryC2Ev
FNDA:0,_ZN7testing8internal24InternalRunDeathTestFlagC2ERKNSt7__cxx1112basic_stringIcSt11char_traitsIcESaIcEEEiii
FNDA:0,_ZN7testing8internal24InternalRunDeathTestFlagD2Ev
FNDA:0,_ZNK7testing8internal24InternalRunDeathTestFlag4fileB5cxx11Ev
FNDA:0,_ZNK7testing8internal24InternalRunDeathTestFlag4lineEv
FNDA:0,_ZNK7testing8internal24InternalRunDeathTestFlag5indexEv
FNDA:0,_ZNK7testing8internal24InternalRunDeathTestFlag8write_fdEv
FNDA:0,_ZN16testing_internal26DefaultPrintNonContainerToIxEEvRKT_PSo
FNDA:0,_ZN7testing8internal14DefaultPrintToIxEEvcNS0_13bool_constantILb0EEERKT_PSo
FNDA:0,_ZN7testing8internal7PrintToIxEEvRKT_PSo
FNDA:0,_ZN7testing8internal7PrintToERKNSt7__cxx1112basic_stringIcSt11char_traitsIcESaIcEEEPSo
FNDA:0,_ZN7testing8internal7PrintToERKNSt7__cxx1112basic_stringIwSt11char_traitsIwESaIwEEEPSo
FNDA:0,_ZN7testing8internal16UniversalPrinterIxE5PrintERKxPSo
FNDA:0,_ZN7testing8internal16UniversalPrinterINSt7__cxx1112basic_stringIwSt11char_traitsIwESaIwEEEE5PrintERKS7_PSo
FNDA:0,_ZN7testing8internal16UniversalPrinterINSt7__cxx1112basic_stringIcSt11char_traitsIcESaIcEEEE5PrintERKS7_PSo
FNDA:0,_ZN7testing8internal21UniversalTersePrinterIxE5PrintERKxPSo
FNDA:0,_ZN7testing8internal21UniversalTersePrinterIPKcE5PrintES3_PSo
FNDA:0,_ZN7testing8internal21UniversalTersePrinterIPKwE5PrintES3_PSo
FNDA:0,_ZN7testing8internal14UniversalPrintIxEEvRKT_PSo
FNDA:0,_ZN7testing8internal14UniversalPrintINSt7__cxx1112basic_stringIwSt11char_traitsIwESaIwEEEEEvRKT_PSo
FNDA:0,_ZN7testing8internal14UniversalPrintINSt7__cxx1112basic_stringIcSt11char_traitsIcESaIcEEEEEvRKT_PSo
FNDA:0,_ZN7testing13PrintToStringIxEENSt7__cxx1112basic_stringIcSt11char_traitsIcESaIcEEERKT_
FNDA:0,_ZN7testing13PrintToStringIPKwEENSt7__cxx1112basic_stringIcSt11char_traitsIcESaIcEEERKT_
FNDA:0,_ZN7testing13PrintToStringIPKcEENSt7__cxx1112basic_stringIcSt11char_traitsIcESaIcEEERKT_
FNDA:10,_ZN7testing8internal29ParameterizedTestCaseRegistryC2Ev
FNDA:0,_ZN7testing8internal29ParameterizedTestCaseRegistryD2Ev
FNDA:10,_ZN7testing8internal29ParameterizedTestCaseRegistry13RegisterTestsEv
FNDA:7,_ZN7testing14TestPartResultC2ERKS0_
FNDA:1,_ZN7testing14TestPartResultC2EOS0_
FNDA:8,_ZN7testing14TestPartResultD2Ev
FNDA:7,_ZN7testing14TestPartResultC2ENS0_4TypeEPKciS3_
FNDA:14,_ZNK7testing14TestPartResult4typeEv
FNDA:7,_ZNK7testing14TestPartResult9file_nameEv
FNDA:7,_ZNK7testing14TestPartResult11line_numberEv
FNDA:0,_ZNK7testing14TestPartResult7summaryEv
FNDA:7,_ZNK7testing14TestPartResult7messageEv
FNDA:60,_ZNK7testing14TestPartResult6failedEv
FNDA:0,_ZNK7testing14TestPartResult17nonfatally_failedEv
FNDA:0,_ZNK7testing14TestPartResult14fatally_failedEv
FNDA:20,_ZN7testing31TestPartResultReporterInterfaceC2Ev
FNDA:0,_ZN7testing31TestPartResultReporterInterfaceD0Ev
FNDA:0,_ZN7testing31TestPartResultReporterInterfaceD2Ev
FNDA:0,_ZN7testing15AssertionResultD2Ev
FNDA:0,_ZN7testing15AssertionResultC2Eb
FNDA:0,_ZNK7testing15AssertionResultcvbEv
FNDA:0,_ZNK7testing15AssertionResult7messageEv
FNDA:0,_ZNK7testing15AssertionResult15failure_messageEv
FNDA:0,_ZN7testing15AssertionResultlsINSt7__cxx1112basic_stringIwSt11char_traitsIwESaIwEEEEERS0_RKT_
FNDA:0,_ZN7testing15AssertionResultlsIPKwEERS0_RKT_
FNDA:0,_ZN7testing15AssertionResultlsIA16_cEERS0_RKT_
FNDA:0,_ZN7testing15AssertionResultlsIA29_cEERS0_RKT_
FNDA:0,_ZN7testing15AssertionResultlsIA13_cEERS0_RKT_
FNDA:0,_ZN7testing15AssertionResultlsIA12_cEERS0_RKT_
FNDA:0,_ZN7testing15AssertionResultlsIA7_cEERS0_RKT_
FNDA:0,_ZN7testing15AssertionResultlsIA15_cEERS0_RKT_
FNDA:0,_ZN7testing15AssertionResultlsIA9_cEERS0_RKT_
FNDA:0,_ZN7testing15AssertionResultlsIA17_cEERS0_RKT_
FNDA:0,_ZN7testing15AssertionResultlsIdEERS0_RKT_
FNDA:0,_ZN7testing15AssertionResultlsIA5_cEERS0_RKT_
FNDA:0,_ZN7testing15AssertionResultlsIA6_cEERS0_RKT_
FNDA:0,_ZN7testing15AssertionResultlsIPKcEERS0_RKT_
FNDA:0,_ZN7testing15AssertionResultlsIA24_cEERS0_RKT_
FNDA:0,_ZN7testing15AssertionResultlsIA3_cEERS0_RKT_
FNDA:0,_ZN7testing15AssertionResultlsIA14_cEERS0_RKT_
FNDA:0,_ZN7testing15AssertionResultlsINS_14TestPartResultEEERS0_RKT_
FNDA:0,_ZN7testing15AssertionResultlsIA2_cEERS0_RKT_
FNDA:0,_ZN7testing15AssertionResultlsINSt7__cxx1112basic_stringIcSt11char_traitsIcESaIcEEEEERS0_RKT_
FNDA:0,_ZN7testing15AssertionResultlsIA11_cEERS0_RKT_
FNDA:7,_ZN7testing15AssertionResultlsINS_7MessageEEERS0_RKT_
FNDA:0,_ZN7testing15AssertionResult13AppendMessageERKNS_7MessageE
FNDA:639,_ZN7testing4Test11DeleteSelf_Ev
FNDA:0,_ZN7testing4Test5SetupEv
FNDA:0,_ZN7testing12TestPropertyC2EOS0_
FNDA:0,_ZN7testing12TestPropertyC2ERKS0_
FNDA:0,_ZN7testing12TestPropertyD2Ev
FNDA:0,_ZN7testing12TestPropertyC2ERKNSt7__cxx1112basic_stringIcSt11char_traitsIcESaIcEEES8_
FNDA:0,_ZNK7testing12TestProperty3keyEv
FNDA:0,_ZNK7testing12TestProperty5valueEv
FNDA:0,_ZN7testing12TestProperty8SetValueERKNSt7__cxx1112basic_stringIcSt11char_traitsIcESaIcEEE
FNDA:1662,_ZNK7testing10TestResult6PassedEv
FNDA:639,_ZNK7testing10TestResult12elapsed_timeEv
FNDA:639,_ZN7testing10TestResult16set_elapsed_timeEx
FNDA:0,_ZNK7testing10TestResult16death_test_countEv
FNDA:0,_ZN7testing10TestResult26increment_death_test_countEv
FNDA:1917,_ZNK7testing8TestInfo14test_case_nameEv
FNDA:3201,_ZNK7testing8TestInfo4nameEv
FNDA:651,_ZNK7testing8TestInfo10type_paramEv
FNDA:12,_ZNK7testing8TestInfo11value_paramEv
FNDA:6648,_ZNK7testing8TestInfo10should_runEv
FNDA:639,_ZNK7testing8TestInfo13is_reportableEv
FNDA:6009,_ZNK7testing8TestInfo6resultEv
FNDA:0,_ZN7testing8TestInfo26increment_death_test_countEv
FNDA:639,_ZN7testing8TestInfo15ClearTestResultEPS0_
FNDA:665,_ZNK7testing8TestCase4nameEv
FNDA:10,_ZNK7testing8TestCase10type_paramEv
FNDA:685,_ZNK7testing8TestCase10should_runEv
FNDA:0,_ZNK7testing8TestCase6PassedEv
FNDA:20,_ZNK7testing8TestCase6FailedEv
FNDA:10,_ZNK7testing8TestCase12elapsed_timeEv
FNDA:0,_ZNK7testing8TestCase18ad_hoc_test_resultEv
FNDA:1288,_ZN7testing8TestCase14test_info_listEv
FNDA:639,_ZNK7testing8TestCase14test_info_listEv
FNDA:649,_ZN7testing8TestCase14set_should_runEb
FNDA:10,_ZN7testing8TestCase19ClearTestCaseResultEPS0_
FNDA:10,_ZN7testing8TestCase16RunSetUpTestCaseEv
FNDA:10,_ZN7testing8TestCase19RunTearDownTestCaseEv
FNDA:639,_ZN7testing8TestCase10TestPassedEPKNS_8TestInfoE
FNDA:3069,_ZN7testing8TestCase10TestFailedEPKNS_8TestInfoE
FNDA:639,_ZN7testing8TestCase22TestReportableDisabledEPKNS_8TestInfoE
FNDA:0,_ZN7testing8TestCase12TestDisabledEPKNS_8TestInfoE
FNDA:0,_ZN7testing8TestCase14TestReportableEPKNS_8TestInfoE
FNDA:2556,_ZN7testing8TestCase13ShouldRunTestEPKNS_8TestInfoE
FNDA:20,_ZN7testing17TestEventListenerC2Ev
FNDA:0,_ZN7testing17TestEventListenerD0Ev
FNDA:0,_ZN7testing17TestEventListenerD2Ev
FNDA:0,_ZN7testing22EmptyTestEventListenerD0Ev
FNDA:0,_ZN7testing22EmptyTestEventListenerD2Ev
FNDA:0,_ZN7testing22EmptyTestEventListenerC2Ev
FNDA:0,_ZN7testing22EmptyTestEventListener18OnTestProgramStartERKNS_8UnitTestE
FNDA:0,_ZN7testing22EmptyTestEventListener20OnTestIterationStartERKNS_8UnitTestEi
FNDA:0,_ZN7testing22EmptyTestEventListener24OnEnvironmentsSetUpStartERKNS_8UnitTestE
FNDA:0,_ZN7testing22EmptyTestEventListener22OnEnvironmentsSetUpEndERKNS_8UnitTestE
FNDA:0,_ZN7testing22EmptyTestEventListener15OnTestCaseStartERKNS_8TestCaseE
FNDA:0,_ZN7testing22EmptyTestEventListener11OnTestStartERKNS_8TestInfoE
FNDA:0,_ZN7testing22EmptyTestEventListener16OnTestPartResultERKNS_14TestPartResultE
FNDA:0,_ZN7testing22EmptyTestEventListener9OnTestEndERKNS_8TestInfoE
FNDA:0,_ZN7testing22EmptyTestEventListener13OnTestCaseEndERKNS_8TestCaseE
FNDA:0,_ZN7testing22EmptyTestEventListener27OnEnvironmentsTearDownStartERKNS_8UnitTestE
FNDA:0,_ZN7testing22EmptyTestEventListener25OnEnvironmentsTearDownEndERKNS_8UnitTestE
FNDA:0,_ZN7testing22EmptyTestEventListener18OnTestIterationEndERKNS_8UnitTestEi
FNDA:0,_ZN7testing22EmptyTestEventListener16OnTestProgramEndERKNS_8UnitTestE
FNDA:7765,_ZN7testing8UnitTest4implEv
FNDA:120,_ZNK7testing8UnitTest4implEv
FNDA:0,_ZN7testing8internal19FormatForComparisonIxxE6FormatERKx
FNDA:0,_ZN7testing8internal33FormatForComparisonFailureMessageIxxEENSt7__cxx1112basic_stringIcSt11char_traitsIcESaIcEEERKT_RKT0_
FNDA:7,_ZN7testing8internal12AssertHelper16AssertHelperDataD2Ev
FNDA:7,_ZN7testing8internal12AssertHelper16AssertHelperDataC2ENS_14TestPartResult4TypeEPKciS6_
FNF:326
FNH:101
DA:2001,2405
DA:2002,0
DA:2004,7
DA:2005,0
DA:2006,1790
DA:2014,10
DA:2015,10
DA:2016,0
DA:2017,0
DA:2019,0
DA:2021,10
DA:2052,0
DA:2138,0
DA:2150,0
DA:2151,0
DA:2205,0
DA:2252,2
DA:2254,2
DA:2255,2
DA:2443,689
DA:2446,14
DA:2447,14
DA:2448,14
DA:2449,14
DA:2450,14
DA:2453,14
DA:2458,14
DA:2459,14
DA:2460,14
DA:2503,689
DA:2504,689
DA:2505,689
DA:2506,689
DA:2507,0
DA:2508,0
DA:2509,0
DA:2520,14
DA:2521,14
DA:2523,14
DA:2539,12
DA:2541,0
DA:2546,0
DA:2547,0
DA:2548,0
DA:2582,10
DA:2583,10
DA:2584,10
DA:2585,10
DA:2587,0
DA:2589,0
DA:2593,0
DA:2594,0
DA:2596,7
DA:2597,7
DA:2598,7
DA:2599,0
DA:2603,0
DA:2605,12
DA:2607,14
DA:2614,20
DA:2618,20
DA:2620,20
DA:2623,14
DA:2625,14
DA:2626,14
DA:2627,2
DA:2630,12
DA:2631,12
DA:2632,12
DA:2633,12
DA:2772,0
DA:2773,0
DA:2778,0
DA:2779,0
DA:2784,0
DA:2785,0
DA:2787,0
DA:2788,0
DA:2789,0
DA:2795,2800
DA:2796,2800
DA:2848,10
DA:2849,10
DA:2850,0
DA:2851,10
DA:2852,10
DA:2854,0
DA:2856,0
DA:2879,0
DA:2880,0
DA:2886,0
DA:2888,0
DA:2890,0
DA:2891,0
DA:2893,0
DA:2894,0
DA:2896,0
DA:2897,0
DA:2899,220
DA:2909,220
DA:2923,0
DA:3157,0
DA:3168,0
DA:3169,0
DA:3170,0
DA:3187,3563
DA:3203,3563
DA:3204,3563
DA:3221,20
DA:3222,20
DA:3223,0
DA:3225,20
DA:3227,20
DA:3304,7
DA:3305,7
DA:3315,762
DA:3316,762
DA:3546,10
DA:3548,10
DA:3549,0
DA:3551,10
DA:3552,10
DA:3553,10
DA:3555,0
DA:3556,0
DA:3557,0
DA:3560,10
DA:3561,10
DA:3562,10
DA:3564,0
DA:3565,0
DA:3598,649
DA:7108,0
DA:7240,0
DA:7267,0
DA:7270,0
DA:7276,0
DA:7279,0
DA:7288,0
DA:7291,0
DA:7293,0
DA:7294,0
DA:7319,0
DA:7320,0
DA:7322,0
DA:7325,0
DA:7331,0
DA:7333,0
DA:7334,0
DA:7335,0
DA:7377,649
DA:7382,649
DA:7502,0
DA:7503,0
DA:7504,0
DA:7505,0
DA:7507,0
DA:7508,0
DA:7513,0
DA:7514,0
DA:7515,0
DA:7620,0
DA:7640,10
DA:7642,0
DA:7829,0
DA:8239,0
DA:8297,10
DA:8299,0
DA:8305,10
DA:8393,0
DA:8398,0
DA:8400,0
DA:8401,0
DA:8402,0
DA:8403,0
DA:8405,0
DA:8406,0
DA:8407,0
DA:8408,0
DA:9409,0
DA:9436,0
DA:9437,0
DA:9526,0
DA:9529,0
DA:9530,0
DA:9544,0
DA:9567,0
DA:9568,0
DA:9655,0
DA:9656,0
DA:9657,0
DA:9669,0
DA:9670,0
DA:9671,0
DA:9782,0
DA:9791,0
DA:9792,0
DA:9874,0
DA:9875,0
DA:9876,0
DA:9895,0
DA:9896,0
DA:9897,0
DA:9899,0
DA:9901,0
DA:9915,0
DA:9916,0
DA:9917,0
DA:9919,0
DA:9921,0
DA:9943,0
DA:9947,0
DA:9948,0
DA:10038,0
DA:10039,0
DA:10040,0
DA:10041,0
DA:10557,10
DA:10558,0
DA:10559,0
DA:10560,0
DA:10561,0
DA:10563,0
DA:10598,10
DA:10599,30
DA:10600,20
DA:10601,0
DA:10603,10
DA:17090,16
DA:17103,7
DA:17111,7
DA:17112,7
DA:17115,14
DA:17119,7
DA:17120,7
DA:17125,7
DA:17128,0
DA:17131,7
DA:17137,60
DA:17140,0
DA:17143,0
DA:17189,20
DA:17191,0
DA:17669,0
DA:17675,0
DA:17678,0
DA:17687,0
DA:17688,0
DA:17692,0
DA:17695,7
DA:17696,7
DA:17697,7
DA:17710,0
DA:17711,0
DA:17712,0
DA:17713,0
DA:17714,0
DA:17842,639
DA:17864,0
DA:17876,0
DA:17881,0
DA:17882,0
DA:17883,0
DA:17886,0
DA:17887,0
DA:17891,0
DA:17892,0
DA:17896,0
DA:17897,0
DA:17898,0
DA:17929,1662
DA:17941,639
DA:17974,639
DA:17995,0
DA:17998,0
DA:18041,1917
DA:18044,3201
DA:18048,651
DA:18049,651
DA:18050,0
DA:18051,651
DA:18056,12
DA:18057,12
DA:18058,0
DA:18059,12
DA:18078,6648
DA:18081,639
DA:18085,639
DA:18089,6009
DA:18120,0
DA:18121,0
DA:18128,639
DA:18129,639
DA:18130,639
DA:18181,665
DA:18185,10
DA:18186,10
DA:18187,0
DA:18188,10
DA:18192,685
DA:18216,0
DA:18219,20
DA:18222,10
DA:18230,0
DA:18237,1288
DA:18240,639
DA:18241,639
DA:18249,649
DA:18259,10
DA:18260,10
DA:18261,10
DA:18268,10
DA:18272,10
DA:18275,639
DA:18276,639
DA:18280,3069
DA:18281,3069
DA:18286,639
DA:18287,639
DA:18291,0
DA:18292,0
DA:18296,0
DA:18297,0
DA:18301,2556
DA:18302,2556
DA:18372,20
DA:18374,0
DA:18425,0
DA:18427,0
DA:18428,0
DA:18429,0
DA:18430,0
DA:18431,0
DA:18432,0
DA:18433,0
DA:18434,0
DA:18435,0
DA:18436,0
DA:18437,0
DA:18438,0
DA:18439,0
DA:18440,0
DA:18441,0
DA:18668,7765
DA:18669,120
DA:18770,0
DA:18771,0
DA:18844,0
DA:18846,0
DA:19154,7
DA:19155,7
DA:19159,7
LF:352
LH:148
end_of_record
TN:
SF:/home/ruperson/Desktop/cpp-course/bigint/big_integer_testing.cpp
FN:10,_ZN36correctness_minus_from_negative_Test8TestBodyEv
FN:10,_ZN36correctness_minus_from_negative_TestD0Ev
FN:10,_ZN36correctness_minus_from_negative_TestC2Ev
FN:10,_ZN36correctness_minus_from_negative_TestD2Ev
FN:21,_ZN29correctness_two_plus_two_TestD2Ev
FN:21,_ZN29correctness_two_plus_two_Test8TestBodyEv
FN:21,_ZN29correctness_two_plus_two_TestD0Ev
FN:21,_ZN29correctness_two_plus_two_TestC2Ev
FN:28,_ZN29correctness_default_ctor_Test8TestBodyEv
FN:28,_ZN29correctness_default_ctor_TestC2Ev
FN:28,_ZN29correctness_default_ctor_TestD0Ev
FN:28,_ZN29correctness_default_ctor_TestD2Ev
FN:36,_ZN28correctness_ctor_limits_Test8TestBodyEv
FN:36,_ZN28correctness_ctor_limits_TestD2Ev
FN:36,_ZN28correctness_ctor_limits_TestD0Ev
FN:36,_ZN28correctness_ctor_limits_TestC2Ev
FN:43,_ZN26correctness_copy_ctor_Test8TestBodyEv
FN:43,_ZN26correctness_copy_ctor_TestC2Ev
FN:43,_ZN26correctness_copy_ctor_TestD2Ev
FN:43,_ZN26correctness_copy_ctor_TestD0Ev
FN:52,_ZN36correctness_copy_ctor_real_copy_TestC2Ev
FN:52,_ZN36correctness_copy_ctor_real_copy_Test8TestBodyEv
FN:52,_ZN36correctness_copy_ctor_real_copy_TestD2Ev
FN:52,_ZN36correctness_copy_ctor_real_copy_TestD0Ev
FN:61,_ZN37correctness_copy_ctor_real_copy2_TestD2Ev
FN:61,_ZN37correctness_copy_ctor_real_copy2_TestD0Ev
FN:61,_ZN37correctness_copy_ctor_real_copy2_Test8TestBodyEv
FN:61,_ZN37correctness_copy_ctor_real_copy2_TestC2Ev
FN:70,_ZN36correctness_assignment_operator_TestD2Ev
FN:70,_ZN36correctness_assignment_operator_TestC2Ev
FN:70,_ZN36correctness_assignment_operator_Test8TestBodyEv
FN:70,_ZN36correctness_assignment_operator_TestD0Ev
FN:79,_ZN32correctness_self_assignment_Test8TestBodyEv
FN:79,_ZN32correctness_self_assignment_TestD2Ev
FN:79,_ZN32correctness_self_assignment_TestD0Ev
FN:79,_ZN32correctness_self_assignment_TestC2Ev
FN:87,_ZN40correctness_assignment_return_value_TestC2Ev
FN:87,_ZN40correctness_assignment_return_value_TestD0Ev
FN:87,_ZN40correctness_assignment_return_value_TestD2Ev
FN:87,_ZN40correctness_assignment_return_value_Test8TestBodyEv
FN:97,_ZN28correctness_comparisons_TestC2Ev
FN:97,_ZN28correctness_comparisons_TestD2Ev
FN:97,_ZN28correctness_comparisons_Test8TestBodyEv
FN:97,_ZN28correctness_comparisons_TestD0Ev
FN:113,_ZN44correctness_compare_zero_and_minus_zero_TestD0Ev
FN:113,_ZN44correctness_compare_zero_and_minus_zero_Test8TestBodyEv
FN:113,_ZN44correctness_compare_zero_and_minus_zero_TestC2Ev
FN:113,_ZN44correctness_compare_zero_and_minus_zero_TestD2Ev
FN:121,_ZN20correctness_add_TestD2Ev
FN:121,_ZN20correctness_add_TestC2Ev
FN:121,_ZN20correctness_add_Test8TestBodyEv
FN:121,_ZN20correctness_add_TestD0Ev
FN:132,_ZN27correctness_add_signed_Test8TestBodyEv
FN:132,_ZN27correctness_add_signed_TestC2Ev
FN:132,_ZN27correctness_add_signed_TestD0Ev
FN:132,_ZN27correctness_add_signed_TestD2Ev
FN:143,_ZN33correctness_add_return_value_TestD2Ev
FN:143,_ZN33correctness_add_return_value_Test8TestBodyEv
FN:143,_ZN33correctness_add_return_value_TestC2Ev
FN:143,_ZN33correctness_add_return_value_TestD0Ev
FN:152,_ZN20correctness_sub_TestD2Ev
FN:152,_ZN20correctness_sub_TestD0Ev
FN:152,_ZN20correctness_sub_Test8TestBodyEv
FN:152,_ZN20correctness_sub_TestC2Ev
FN:163,_ZN27correctness_sub_signed_Test8TestBodyEv
FN:163,_ZN27correctness_sub_signed_TestC2Ev
FN:163,_ZN27correctness_sub_signed_TestD0Ev
FN:163,_ZN27correctness_sub_signed_TestD2Ev
FN:177,_ZN33correctness_sub_return_value_TestD0Ev
FN:177,_ZN33correctness_sub_return_value_TestC2Ev
FN:177,_ZN33correctness_sub_return_value_Test8TestBodyEv
FN:177,_ZN33correctness_sub_return_value_TestD2Ev
FN:186,_ZN20correctness_mul_TestC2Ev
FN:186,_ZN20correctness_mul_TestD0Ev
FN:186,_ZN20correctness_mul_TestD2Ev
FN:186,_ZN20correctness_mul_Test8TestBodyEv
FN:197,_ZN27correctness_mul_signed_Test8TestBodyEv
FN:197,_ZN27correctness_mul_signed_TestC2Ev
FN:197,_ZN27correctness_mul_signed_TestD0Ev
FN:197,_ZN27correctness_mul_signed_TestD2Ev
FN:208,_ZN33correctness_mul_return_value_TestD0Ev
FN:208,_ZN33correctness_mul_return_value_TestD2Ev
FN:208,_ZN33correctness_mul_return_value_Test8TestBodyEv
FN:208,_ZN33correctness_mul_return_value_TestC2Ev
FN:217,_ZN21correctness_div__TestD2Ev
FN:217,_ZN21correctness_div__TestC2Ev
FN:217,_ZN21correctness_div__Test8TestBodyEv
FN:217,_ZN21correctness_div__TestD0Ev
FN:233,_ZN28correctness_div_int_min_TestC2Ev
FN:233,_ZN28correctness_div_int_min_TestD0Ev
FN:233,_ZN28correctness_div_int_min_Test8TestBodyEv
FN:233,_ZN28correctness_div_int_min_TestD2Ev
FN:239,_ZN30correctness_div_int_min_2_TestD2Ev
FN:239,_ZN30correctness_div_int_min_2_Test8TestBodyEv
FN:239,_ZN30correctness_div_int_min_2_TestC2Ev
FN:239,_ZN30correctness_div_int_min_2_TestD0Ev
FN:248,_ZN27correctness_div_signed_TestD2Ev
FN:248,_ZN27correctness_div_signed_TestD0Ev
FN:248,_ZN27correctness_div_signed_Test8TestBodyEv
FN:248,_ZN27correctness_div_signed_TestC2Ev
FN:257,_ZN29correctness_div_rounding_TestC2Ev
FN:257,_ZN29correctness_div_rounding_TestD2Ev
FN:257,_ZN29correctness_div_rounding_TestD0Ev
FN:257,_ZN29correctness_div_rounding_Test8TestBodyEv
FN:266,_ZN38correctness_div_rounding_negative_TestD0Ev
FN:266,_ZN38correctness_div_rounding_negative_Test8TestBodyEv
FN:266,_ZN38correctness_div_rounding_negative_TestC2Ev
FN:266,_ZN38correctness_div_rounding_negative_TestD2Ev
FN:279,_ZN33correctness_div_return_value_TestC2Ev
FN:279,_ZN33correctness_div_return_value_TestD2Ev
FN:279,_ZN33correctness_div_return_value_Test8TestBodyEv
FN:279,_ZN33correctness_div_return_value_TestD0Ev
FN:288,_ZN27correctness_unary_plus_Test8TestBodyEv
FN:288,_ZN27correctness_unary_plus_TestD0Ev
FN:288,_ZN27correctness_unary_plus_TestD2Ev
FN:288,_ZN27correctness_unary_plus_TestC2Ev
FN:299,_ZN25correctness_negation_TestD2Ev
FN:299,_ZN25correctness_negation_TestD0Ev
FN:299,_ZN25correctness_negation_TestC2Ev
FN:299,_ZN25correctness_negation_Test8TestBodyEv
FN:307,_ZN33correctness_negation_int_min_Test8TestBodyEv
FN:307,_ZN33correctness_negation_int_min_TestD0Ev
FN:307,_ZN33correctness_negation_int_min_TestC2Ev
FN:307,_ZN33correctness_negation_int_min_TestD2Ev
FN:315,_ZN21correctness_and__TestD2Ev
FN:315,_ZN21correctness_and__TestC2Ev
FN:315,_ZN21correctness_and__Test8TestBodyEv
FN:315,_ZN21correctness_and__TestD0Ev
FN:326,_ZN27correctness_and_signed_TestD0Ev
FN:326,_ZN27correctness_and_signed_Test8TestBodyEv
FN:326,_ZN27correctness_and_signed_TestC2Ev
FN:326,_ZN27correctness_and_signed_TestD2Ev
FN:340,_ZN33correctness_and_return_value_Test8TestBodyEv
FN:340,_ZN33correctness_and_return_value_TestD0Ev
FN:340,_ZN33correctness_and_return_value_TestD2Ev
FN:340,_ZN33correctness_and_return_value_TestC2Ev
FN:348,_ZN20correctness_or__Test8TestBodyEv
FN:348,_ZN20correctness_or__TestC2Ev
FN:348,_ZN20correctness_or__TestD2Ev
FN:348,_ZN20correctness_or__TestD0Ev
FN:362,_ZN26correctness_or_signed_TestD2Ev
FN:362,_ZN26correctness_or_signed_TestC2Ev
FN:362,_ZN26correctness_or_signed_TestD0Ev
FN:362,_ZN26correctness_or_signed_Test8TestBodyEv
FN:370,_ZN32correctness_or_return_value_TestD2Ev
FN:370,_ZN32correctness_or_return_value_TestC2Ev
FN:370,_ZN32correctness_or_return_value_Test8TestBodyEv
FN:370,_ZN32correctness_or_return_value_TestD0Ev
FN:378,_ZN21correctness_xor__TestD0Ev
FN:378,_ZN21correctness_xor__Test8TestBodyEv
FN:378,_ZN21correctness_xor__TestD2Ev
FN:378,_ZN21correctness_xor__TestC2Ev
FN:390,_ZN27correctness_xor_signed_TestC2Ev
FN:390,_ZN27correctness_xor_signed_TestD2Ev
FN:390,_ZN27correctness_xor_signed_Test8TestBodyEv
FN:390,_ZN27correctness_xor_signed_TestD0Ev
FN:398,_ZN33correctness_xor_return_value_TestD2Ev
FN:398,_ZN33correctness_xor_return_value_Test8TestBodyEv
FN:398,_ZN33correctness_xor_return_value_TestD0Ev
FN:398,_ZN33correctness_xor_return_value_TestC2Ev
FN:406,_ZN21correctness_not__TestD0Ev
FN:406,_ZN21correctness_not__TestD2Ev
FN:406,_ZN21correctness_not__TestC2Ev
FN:406,_ZN21correctness_not__Test8TestBodyEv
FN:413,_ZN21correctness_shl__TestD2Ev
FN:413,_ZN21correctness_shl__Test8TestBodyEv
FN:413,_ZN21correctness_shl__TestD0Ev
FN:413,_ZN21correctness_shl__TestC2Ev
FN:423,_ZN33correctness_shl_return_value_TestC2Ev
FN:423,_ZN33correctness_shl_return_value_TestD0Ev
FN:423,_ZN33correctness_shl_return_value_Test8TestBodyEv
FN:423,_ZN33correctness_shl_return_value_TestD2Ev
FN:431,_ZN21correctness_shr__TestC2Ev
FN:431,_ZN21correctness_shr__Test8TestBodyEv
FN:431,_ZN21correctness_shr__TestD2Ev
FN:431,_ZN21correctness_shr__TestD0Ev
FN:441,_ZN23correctness_shr_31_TestC2Ev
FN:441,_ZN23correctness_shr_31_TestD0Ev
FN:441,_ZN23correctness_shr_31_TestD2Ev
FN:441,_ZN23correctness_shr_31_Test8TestBodyEv
FN:448,_ZN27correctness_shr_signed_TestD0Ev
FN:448,_ZN27correctness_shr_signed_Test8TestBodyEv
FN:448,_ZN27correctness_shr_signed_TestD2Ev
FN:448,_ZN27correctness_shr_signed_TestC2Ev
FN:458,_ZN33correctness_shr_return_value_TestD0Ev
FN:458,_ZN33correctness_shr_return_value_TestC2Ev
FN:458,_ZN33correctness_shr_return_value_TestD2Ev
FN:458,_ZN33correctness_shr_return_value_Test8TestBodyEv
FN:466,_ZN25correctness_add_long_TestD0Ev
FN:466,_ZN25correctness_add_long_TestC2Ev
FN:466,_ZN25correctness_add_long_TestD2Ev
FN:466,_ZN25correctness_add_long_Test8TestBodyEv
FN:475,_ZN32correctness_add_long_signed_Test8TestBodyEv
FN:475,_ZN32correctness_add_long_signed_TestC2Ev
FN:475,_ZN32correctness_add_long_signed_TestD0Ev
FN:475,_ZN32correctness_add_long_signed_TestD2Ev
FN:483,_ZN33correctness_add_long_signed2_TestD2Ev
FN:483,_ZN33correctness_add_long_signed2_TestD0Ev
FN:483,_ZN33correctness_add_long_signed2_TestC2Ev
FN:483,_ZN33correctness_add_long_signed2_Test8TestBodyEv
FN:492,_ZN30correctness_add_long_pow2_TestD0Ev
FN:492,_ZN30correctness_add_long_pow2_TestD2Ev
FN:492,_ZN30correctness_add_long_pow2_TestC2Ev
FN:492,_ZN30correctness_add_long_pow2_Test8TestBodyEv
FN:503,_ZN25correctness_sub_long_Test8TestBodyEv
FN:503,_ZN25correctness_sub_long_TestC2Ev
FN:503,_ZN25correctness_sub_long_TestD0Ev
FN:503,_ZN25correctness_sub_long_TestD2Ev
FN:512,_ZN25correctness_mul_long_TestC2Ev
FN:512,_ZN25correctness_mul_long_Test8TestBodyEv
FN:512,_ZN25correctness_mul_long_TestD2Ev
FN:512,_ZN25correctness_mul_long_TestD0Ev
FN:522,_ZN32correctness_mul_long_signed_TestD2Ev
FN:522,_ZN32correctness_mul_long_signed_TestD0Ev
FN:522,_ZN32correctness_mul_long_signed_TestC2Ev
FN:522,_ZN32correctness_mul_long_signed_Test8TestBodyEv
FN:532,_ZN33correctness_mul_long_signed2_TestD0Ev
FN:532,_ZN33correctness_mul_long_signed2_TestC2Ev
FN:532,_ZN33correctness_mul_long_signed2_Test8TestBodyEv
FN:532,_ZN33correctness_mul_long_signed2_TestD2Ev
FN:541,_ZN30correctness_mul_long_pow2_TestD0Ev
FN:541,_ZN30correctness_mul_long_pow2_Test8TestBodyEv
FN:541,_ZN30correctness_mul_long_pow2_TestD2Ev
FN:541,_ZN30correctness_mul_long_pow2_TestC2Ev
FN:551,_ZN25correctness_div_long_TestC2Ev
FN:551,_ZN25correctness_div_long_Test8TestBodyEv
FN:551,_ZN25correctness_div_long_TestD0Ev
FN:551,_ZN25correctness_div_long_TestD2Ev
FN:560,_ZN32correctness_div_long_signed_TestD0Ev
FN:560,_ZN32correctness_div_long_signed_Test8TestBodyEv
FN:560,_ZN32correctness_div_long_signed_TestC2Ev
FN:560,_ZN32correctness_div_long_signed_TestD2Ev
FN:569,_ZN33correctness_div_long_signed2_TestC2Ev
FN:569,_ZN33correctness_div_long_signed2_TestD0Ev
FN:569,_ZN33correctness_div_long_signed2_TestD2Ev
FN:569,_ZN33correctness_div_long_signed2_Test8TestBodyEv
FN:578,_ZN30correctness_negation_long_TestD2Ev
FN:578,_ZN30correctness_negation_long_TestD0Ev
FN:578,_ZN30correctness_negation_long_TestC2Ev
FN:578,_ZN30correctness_negation_long_Test8TestBodyEv
FN:587,_ZN28correctness_string_conv_TestD0Ev
FN:587,_ZN28correctness_string_conv_TestD2Ev
FN:587,_ZN28correctness_string_conv_Test8TestBodyEv
FN:587,_ZN28correctness_string_conv_TestC2Ev
FN:602,_ZN12_GLOBAL__N_16myrandEv
FN:612,_ZN35correctness_mul_div_randomized_Test8TestBodyEv
FN:612,_ZN35correctness_mul_div_randomized_TestD0Ev
FN:612,_ZN35correctness_mul_div_randomized_TestC2Ev
FN:612,_ZN35correctness_mul_div_randomized_TestD2Ev
FN:638,_ZN12_GLOBAL__N_115erase_unorderedI11big_integerEEvRSt6vectorIT_SaIS3_EENS5_8iteratorE
FN:645,_ZN12_GLOBAL__N_122extract_random_elementI11big_integerEET_RSt6vectorIS2_SaIS2_EE
FN:654,_ZN12_GLOBAL__N_19merge_twoI11big_integerEEvRSt6vectorIT_SaIS3_EE
FN:669,_ZN12_GLOBAL__N_19merge_allI11big_integerEET_St6vectorIS2_SaIS2_EE
FN:680,_ZN37correctness_mul_merge_randomized_Test8TestBodyEv
FN:680,_ZN37correctness_mul_merge_randomized_TestD2Ev
FN:680,_ZN37correctness_mul_merge_randomized_TestC2Ev
FN:680,_ZN37correctness_mul_merge_randomized_TestD0Ev
FN:697,_ZN12_GLOBAL__N_18rand_bigEm
FN:711,_ZN31correctness_div_randomized_Test8TestBodyEv
FN:711,_ZN31correctness_div_randomized_TestC2Ev
FN:711,_ZN31correctness_div_randomized_TestD2Ev
FN:711,_ZN31correctness_div_randomized_TestD0Ev
FN:723,_GLOBAL__sub_I__ZN36correctness_minus_from_negative_Test10test_info_E
FN:723,_Z41__static_initialization_and_destruction_0ii
FNDA:1,_ZN36correctness_minus_from_negative_TestD0Ev
FNDA:1,_ZN36correctness_minus_from_negative_TestD2Ev
FNDA:1,_ZN36correctness_minus_from_negative_Test8TestBodyEv
FNDA:1,_ZN36correctness_minus_from_negative_TestC2Ev
FNDA:1,_ZN29correctness_two_plus_two_TestD0Ev
FNDA:1,_ZN29correctness_two_plus_two_TestD2Ev
FNDA:1,_ZN29correctness_two_plus_two_Test8TestBodyEv
FNDA:1,_ZN29correctness_two_plus_two_TestC2Ev
FNDA:1,_ZN29correctness_default_ctor_TestD0Ev
FNDA:1,_ZN29correctness_default_ctor_TestD2Ev
FNDA:1,_ZN29correctness_default_ctor_Test8TestBodyEv
FNDA:1,_ZN29correctness_default_ctor_TestC2Ev
FNDA:1,_ZN28correctness_ctor_limits_TestD0Ev
FNDA:1,_ZN28correctness_ctor_limits_TestD2Ev
FNDA:1,_ZN28correctness_ctor_limits_Test8TestBodyEv
FNDA:1,_ZN28correctness_ctor_limits_TestC2Ev
FNDA:1,_ZN26correctness_copy_ctor_TestD0Ev
FNDA:1,_ZN26correctness_copy_ctor_TestD2Ev
FNDA:1,_ZN26correctness_copy_ctor_Test8TestBodyEv
FNDA:1,_ZN26correctness_copy_ctor_TestC2Ev
FNDA:1,_ZN36correctness_copy_ctor_real_copy_TestD0Ev
FNDA:1,_ZN36correctness_copy_ctor_real_copy_TestD2Ev
FNDA:1,_ZN36correctness_copy_ctor_real_copy_Test8TestBodyEv
FNDA:1,_ZN36correctness_copy_ctor_real_copy_TestC2Ev
FNDA:1,_ZN37correctness_copy_ctor_real_copy2_TestD0Ev
FNDA:1,_ZN37correctness_copy_ctor_real_copy2_TestD2Ev
FNDA:1,_ZN37correctness_copy_ctor_real_copy2_Test8TestBodyEv
FNDA:1,_ZN37correctness_copy_ctor_real_copy2_TestC2Ev
FNDA:1,_ZN36correctness_assignment_operator_TestD0Ev
FNDA:1,_ZN36correctness_assignment_operator_TestD2Ev
FNDA:1,_ZN36correctness_assignment_operator_Test8TestBodyEv
FNDA:1,_ZN36correctness_assignment_operator_TestC2Ev
FNDA:1,_ZN32correctness_self_assignment_TestD0Ev
FNDA:1,_ZN32correctness_self_assignment_TestD2Ev
FNDA:1,_ZN32correctness_self_assignment_Test8TestBodyEv
FNDA:1,_ZN32correctness_self_assignment_TestC2Ev
FNDA:1,_ZN40correctness_assignment_return_value_TestD0Ev
FNDA:1,_ZN40correctness_assignment_return_value_TestD2Ev
FNDA:1,_ZN40correctness_assignment_return_value_Test8TestBodyEv
FNDA:1,_ZN40correctness_assignment_return_value_TestC2Ev
FNDA:1,_ZN28correctness_comparisons_TestD0Ev
FNDA:1,_ZN28correctness_comparisons_TestD2Ev
FNDA:1,_ZN28correctness_comparisons_Test8TestBodyEv
FNDA:1,_ZN28correctness_comparisons_TestC2Ev
FNDA:1,_ZN44correctness_compare_zero_and_minus_zero_TestD0Ev
FNDA:1,_ZN44correctness_compare_zero_and_minus_zero_TestD2Ev
FNDA:1,_ZN44correctness_compare_zero_and_minus_zero_Test8TestBodyEv
FNDA:1,_ZN44correctness_compare_zero_and_minus_zero_TestC2Ev
FNDA:1,_ZN20correctness_add_TestD0Ev
FNDA:1,_ZN20correctness_add_TestD2Ev
FNDA:1,_ZN20correctness_add_Test8TestBodyEv
FNDA:1,_ZN20correctness_add_TestC2Ev
FNDA:1,_ZN27correctness_add_signed_TestD0Ev
FNDA:1,_ZN27correctness_add_signed_TestD2Ev
FNDA:1,_ZN27correctness_add_signed_Test8TestBodyEv
FNDA:1,_ZN27correctness_add_signed_TestC2Ev
FNDA:1,_ZN33correctness_add_return_value_TestD0Ev
FNDA:1,_ZN33correctness_add_return_value_TestD2Ev
FNDA:1,_ZN33correctness_add_return_value_Test8TestBodyEv
FNDA:1,_ZN33correctness_add_return_value_TestC2Ev
FNDA:1,_ZN20correctness_sub_TestD0Ev
FNDA:1,_ZN20correctness_sub_TestD2Ev
FNDA:1,_ZN20correctness_sub_Test8TestBodyEv
FNDA:1,_ZN20correctness_sub_TestC2Ev
FNDA:1,_ZN27correctness_sub_signed_TestD0Ev
FNDA:1,_ZN27correctness_sub_signed_TestD2Ev
FNDA:1,_ZN27correctness_sub_signed_Test8TestBodyEv
FNDA:1,_ZN27correctness_sub_signed_TestC2Ev
FNDA:1,_ZN33correctness_sub_return_value_TestD0Ev
FNDA:1,_ZN33correctness_sub_return_value_TestD2Ev
FNDA:1,_ZN33correctness_sub_return_value_Test8TestBodyEv
FNDA:1,_ZN33correctness_sub_return_value_TestC2Ev
FNDA:1,_ZN20correctness_mul_TestD0Ev
FNDA:1,_ZN20correctness_mul_TestD2Ev
FNDA:1,_ZN20correctness_mul_Test8TestBodyEv
FNDA:1,_ZN20correctness_mul_TestC2Ev
FNDA:1,_ZN27correctness_mul_signed_TestD0Ev
FNDA:1,_ZN27correctness_mul_signed_TestD2Ev
FNDA:1,_ZN27correctness_mul_signed_Test8TestBodyEv
FNDA:1,_ZN27correctness_mul_signed_TestC2Ev
FNDA:1,_ZN33correctness_mul_return_value_TestD0Ev
FNDA:1,_ZN33correctness_mul_return_value_TestD2Ev
FNDA:1,_ZN33correctness_mul_return_value_Test8TestBodyEv
FNDA:1,_ZN33correctness_mul_return_value_TestC2Ev
FNDA:1,_ZN21correctness_div__TestD0Ev
FNDA:1,_ZN21correctness_div__TestD2Ev
FNDA:1,_ZN21correctness_div__Test8TestBodyEv
FNDA:1,_ZN21correctness_div__TestC2Ev
FNDA:1,_ZN28correctness_div_int_min_TestD0Ev
FNDA:1,_ZN28correctness_div_int_min_TestD2Ev
FNDA:1,_ZN28correctness_div_int_min_Test8TestBodyEv
FNDA:1,_ZN28correctness_div_int_min_TestC2Ev
FNDA:1,_ZN30correctness_div_int_min_2_TestD0Ev
FNDA:1,_ZN30correctness_div_int_min_2_TestD2Ev
FNDA:1,_ZN30correctness_div_int_min_2_Test8TestBodyEv
FNDA:1,_ZN30correctness_div_int_min_2_TestC2Ev
FNDA:1,_ZN27correctness_div_signed_TestD0Ev
FNDA:1,_ZN27correctness_div_signed_TestD2Ev
FNDA:1,_ZN27correctness_div_signed_Test8TestBodyEv
FNDA:1,_ZN27correctness_div_signed_TestC2Ev
FNDA:1,_ZN29correctness_div_rounding_TestD0Ev
FNDA:1,_ZN29correctness_div_rounding_TestD2Ev
FNDA:1,_ZN29correctness_div_rounding_Test8TestBodyEv
FNDA:1,_ZN29correctness_div_rounding_TestC2Ev
FNDA:1,_ZN38correctness_div_rounding_negative_TestD0Ev
FNDA:1,_ZN38correctness_div_rounding_negative_TestD2Ev
FNDA:1,_ZN38correctness_div_rounding_negative_Test8TestBodyEv
FNDA:1,_ZN38correctness_div_rounding_negative_TestC2Ev
FNDA:1,_ZN33correctness_div_return_value_TestD0Ev
FNDA:1,_ZN33correctness_div_return_value_TestD2Ev
FNDA:1,_ZN33correctness_div_return_value_Test8TestBodyEv
FNDA:1,_ZN33correctness_div_return_value_TestC2Ev
FNDA:1,_ZN27correctness_unary_plus_TestD0Ev
FNDA:1,_ZN27correctness_unary_plus_TestD2Ev
FNDA:1,_ZN27correctness_unary_plus_Test8TestBodyEv
FNDA:1,_ZN27correctness_unary_plus_TestC2Ev
FNDA:1,_ZN25correctness_negation_TestD0Ev
FNDA:1,_ZN25correctness_negation_TestD2Ev
FNDA:1,_ZN25correctness_negation_Test8TestBodyEv
FNDA:1,_ZN25correctness_negation_TestC2Ev
FNDA:1,_ZN33correctness_negation_int_min_TestD0Ev
FNDA:1,_ZN33correctness_negation_int_min_TestD2Ev
FNDA:1,_ZN33correctness_negation_int_min_Test8TestBodyEv
FNDA:1,_ZN33correctness_negation_int_min_TestC2Ev
FNDA:1,_ZN21correctness_and__TestD0Ev
FNDA:1,_ZN21correctness_and__TestD2Ev
FNDA:1,_ZN21correctness_and__Test8TestBodyEv
FNDA:1,_ZN21correctness_and__TestC2Ev
FNDA:1,_ZN27correctness_and_signed_TestD0Ev
FNDA:1,_ZN27correctness_and_signed_TestD2Ev
FNDA:1,_ZN27correctness_and_signed_Test8TestBodyEv
FNDA:1,_ZN27correctness_and_signed_TestC2Ev
FNDA:1,_ZN33correctness_and_return_value_TestD0Ev
FNDA:1,_ZN33correctness_and_return_value_TestD2Ev
FNDA:1,_ZN33correctness_and_return_value_Test8TestBodyEv
FNDA:1,_ZN33correctness_and_return_value_TestC2Ev
FNDA:1,_ZN20correctness_or__TestD0Ev
FNDA:1,_ZN20correctness_or__TestD2Ev
FNDA:1,_ZN20correctness_or__Test8TestBodyEv
FNDA:1,_ZN20correctness_or__TestC2Ev
FNDA:1,_ZN26correctness_or_signed_TestD0Ev
FNDA:1,_ZN26correctness_or_signed_TestD2Ev
FNDA:1,_ZN26correctness_or_signed_Test8TestBodyEv
FNDA:1,_ZN26correctness_or_signed_TestC2Ev
FNDA:1,_ZN32correctness_or_return_value_TestD0Ev
FNDA:1,_ZN32correctness_or_return_value_TestD2Ev
FNDA:1,_ZN32correctness_or_return_value_Test8TestBodyEv
FNDA:1,_ZN32correctness_or_return_value_TestC2Ev
FNDA:1,_ZN21correctness_xor__TestD0Ev
FNDA:1,_ZN21correctness_xor__TestD2Ev
FNDA:1,_ZN21correctness_xor__Test8TestBodyEv
FNDA:1,_ZN21correctness_xor__TestC2Ev
FNDA:1,_ZN27correctness_xor_signed_TestD0Ev
FNDA:1,_ZN27correctness_xor_signed_TestD2Ev
FNDA:1,_ZN27correctness_xor_signed_Test8TestBodyEv
FNDA:1,_ZN27correctness_xor_signed_TestC2Ev
FNDA:1,_ZN33correctness_xor_return_value_TestD0Ev
FNDA:1,_ZN33correctness_xor_return_value_TestD2Ev
FNDA:1,_ZN33correctness_xor_return_value_Test8TestBodyEv
FNDA:1,_ZN33correctness_xor_return_value_TestC2Ev
FNDA:1,_ZN21correctness_not__TestD0Ev
FNDA:1,_ZN21correctness_not__TestD2Ev
FNDA:1,_ZN21correctness_not__Test8TestBodyEv
FNDA:1,_ZN21correctness_not__TestC2Ev
FNDA:1,_ZN21correctness_shl__TestD0Ev
FNDA:1,_ZN21correctness_shl__TestD2Ev
FNDA:1,_ZN21correctness_shl__Test8TestBodyEv
FNDA:1,_ZN21correctness_shl__TestC2Ev
FNDA:1,_ZN33correctness_shl_return_value_TestD0Ev
FNDA:1,_ZN33correctness_shl_return_value_TestD2Ev
FNDA:1,_ZN33correctness_shl_return_value_Test8TestBodyEv
FNDA:1,_ZN33correctness_shl_return_value_TestC2Ev
FNDA:1,_ZN21correctness_shr__TestD0Ev
FNDA:1,_ZN21correctness_shr__TestD2Ev
FNDA:1,_ZN21correctness_shr__Test8TestBodyEv
FNDA:1,_ZN21correctness_shr__TestC2Ev
FNDA:1,_ZN23correctness_shr_31_TestD0Ev
FNDA:1,_ZN23correctness_shr_31_TestD2Ev
FNDA:1,_ZN23correctness_shr_31_Test8TestBodyEv
FNDA:1,_ZN23correctness_shr_31_TestC2Ev
FNDA:1,_ZN27correctness_shr_signed_TestD0Ev
FNDA:1,_ZN27correctness_shr_signed_TestD2Ev
FNDA:1,_ZN27correctness_shr_signed_Test8TestBodyEv
FNDA:1,_ZN27correctness_shr_signed_TestC2Ev
FNDA:1,_ZN33correctness_shr_return_value_TestD0Ev
FNDA:1,_ZN33correctness_shr_return_value_TestD2Ev
FNDA:1,_ZN33correctness_shr_return_value_Test8TestBodyEv
FNDA:1,_ZN33correctness_shr_return_value_TestC2Ev
FNDA:1,_ZN25correctness_add_long_TestD0Ev
FNDA:1,_ZN25correctness_add_long_TestD2Ev
FNDA:1,_ZN25correctness_add_long_Test8TestBodyEv
FNDA:1,_ZN25correctness_add_long_TestC2Ev
FNDA:1,_ZN32correctness_add_long_signed_TestD0Ev
FNDA:1,_ZN32correctness_add_long_signed_TestD2Ev
FNDA:1,_ZN32correctness_add_long_signed_Test8TestBodyEv
FNDA:1,_ZN32correctness_add_long_signed_TestC2Ev
FNDA:1,_ZN33correctness_add_long_signed2_TestD0Ev
FNDA:1,_ZN33correctness_add_long_signed2_TestD2Ev
FNDA:1,_ZN33correctness_add_long_signed2_Test8TestBodyEv
FNDA:1,_ZN33correctness_add_long_signed2_TestC2Ev
FNDA:1,_ZN30correctness_add_long_pow2_TestD0Ev
FNDA:1,_ZN30correctness_add_long_pow2_TestD2Ev
FNDA:1,_ZN30correctness_add_long_pow2_Test8TestBodyEv
FNDA:1,_ZN30correctness_add_long_pow2_TestC2Ev
FNDA:1,_ZN25correctness_sub_long_TestD0Ev
FNDA:1,_ZN25correctness_sub_long_TestD2Ev
FNDA:1,_ZN25correctness_sub_long_Test8TestBodyEv
FNDA:1,_ZN25correctness_sub_long_TestC2Ev
FNDA:1,_ZN25correctness_mul_long_TestD0Ev
FNDA:1,_ZN25correctness_mul_long_TestD2Ev
FNDA:1,_ZN25correctness_mul_long_Test8TestBodyEv
FNDA:1,_ZN25correctness_mul_long_TestC2Ev
FNDA:1,_ZN32correctness_mul_long_signed_TestD0Ev
FNDA:1,_ZN32correctness_mul_long_signed_TestD2Ev
FNDA:1,_ZN32correctness_mul_long_signed_Test8TestBodyEv
FNDA:1,_ZN32correctness_mul_long_signed_TestC2Ev
FNDA:1,_ZN33correctness_mul_long_signed2_TestD0Ev
FNDA:1,_ZN33correctness_mul_long_signed2_TestD2Ev
FNDA:1,_ZN33correctness_mul_long_signed2_Test8TestBodyEv
FNDA:1,_ZN33correctness_mul_long_signed2_TestC2Ev
FNDA:1,_ZN30correctness_mul_long_pow2_TestD0Ev
FNDA:1,_ZN30correctness_mul_long_pow2_TestD2Ev
FNDA:1,_ZN30correctness_mul_long_pow2_Test8TestBodyEv
FNDA:1,_ZN30correctness_mul_long_pow2_TestC2Ev
FNDA:1,_ZN25correctness_div_long_TestD0Ev
FNDA:1,_ZN25correctness_div_long_TestD2Ev
FNDA:1,_ZN25correctness_div_long_Test8TestBodyEv
FNDA:1,_ZN25correctness_div_long_TestC2Ev
FNDA:1,_ZN32correctness_div_long_signed_TestD0Ev
FNDA:1,_ZN32correctness_div_long_signed_TestD2Ev
FNDA:1,_ZN32correctness_div_long_signed_Test8TestBodyEv
FNDA:1,_ZN32correctness_div_long_signed_TestC2Ev
FNDA:1,_ZN33correctness_div_long_signed2_TestD0Ev
FNDA:1,_ZN33correctness_div_long_signed2_TestD2Ev
FNDA:1,_ZN33correctness_div_long_signed2_Test8TestBodyEv
FNDA:1,_ZN33correctness_div_long_signed2_TestC2Ev
FNDA:1,_ZN30correctness_negation_long_TestD0Ev
FNDA:1,_ZN30correctness_negation_long_TestD2Ev
FNDA:1,_ZN30correctness_negation_long_Test8TestBodyEv
FNDA:1,_ZN30correctness_negation_long_TestC2Ev
FNDA:1,_ZN28correctness_string_conv_TestD0Ev
FNDA:1,_ZN28correctness_string_conv_TestD2Ev
FNDA:1,_ZN28correctness_string_conv_Test8TestBodyEv
FNDA:1,_ZN28correctness_string_conv_TestC2Ev
FNDA:20000,_ZN12_GLOBAL__N_16myrandEv
FNDA:1,_ZN35correctness_mul_div_randomized_TestD0Ev
FNDA:1,_ZN35correctness_mul_div_randomized_TestD2Ev
FNDA:1,_ZN35correctness_mul_div_randomized_Test8TestBodyEv
FNDA:1,_ZN35correctness_mul_div_randomized_TestC2Ev
FNDA:39960,_ZN12_GLOBAL__N_115erase_unorderedI11big_integerEEvRSt6vectorIT_SaIS3_EENS5_8iteratorE
FNDA:39960,_ZN12_GLOBAL__N_122extract_random_elementI11big_integerEET_RSt6vectorIS2_SaIS2_EE
FNDA:19980,_ZN12_GLOBAL__N_19merge_twoI11big_integerEEvRSt6vectorIT_SaIS3_EE
FNDA:20,_ZN12_GLOBAL__N_19merge_allI11big_integerEET_St6vectorIS2_SaIS2_EE
FNDA:1,_ZN37correctness_mul_merge_randomized_TestD0Ev
FNDA:1,_ZN37correctness_mul_merge_randomized_TestD2Ev
FNDA:1,_ZN37correctness_mul_merge_randomized_Test8TestBodyEv
FNDA:1,_ZN37correctness_mul_merge_randomized_TestC2Ev
FNDA:20000,_ZN12_GLOBAL__N_18rand_bigEm
FNDA:1,_ZN31correctness_div_randomized_TestD0Ev
FNDA:1,_ZN31correctness_div_randomized_TestD2Ev
FNDA:1,_ZN31correctness_div_randomized_Test8TestBodyEv
FNDA:1,_ZN31correctness_div_randomized_TestC2Ev
FNDA:1,_GLOBAL__sub_I__ZN36correctness_minus_from_negative_Test10test_info_E
FNDA:1,_Z41__static_initialization_and_destruction_0ii
FNF:264
FNH:264
DA:10,5
DA:12,2
DA:13,1
DA:14,1
DA:16,2
DA:17,1
DA:18,1
DA:19,1
DA:21,5
DA:23,1
DA:24,1
DA:25,1
DA:26,1
DA:28,5
DA:30,2
DA:31,2
DA:32,1
DA:33,1
DA:34,1
DA:36,5
DA:38,2
DA:39,2
DA:40,1
DA:41,1
DA:43,5
DA:45,2
DA:46,2
DA:48,1
DA:49,1
DA:50,1
DA:52,5
DA:54,2
DA:55,2
DA:56,1
DA:58,1
DA:59,1
DA:61,5
DA:63,2
DA:64,2
DA:65,1
DA:67,1
DA:68,1
DA:70,5
DA:72,2
DA:73,2
DA:74,1
DA:76,1
DA:77,1
DA:79,5
DA:81,2
DA:82,1
DA:84,1
DA:85,1
DA:87,5
DA:89,2
DA:90,2
DA:91,1
DA:93,1
DA:94,1
DA:95,1
DA:97,5
DA:99,2
DA:100,2
DA:101,2
DA:103,1
DA:104,1
DA:105,1
DA:106,1
DA:107,1
DA:108,1
DA:109,1
DA:110,1
DA:111,1
DA:113,5
DA:115,2
DA:116,2
DA:118,1
DA:119,1
DA:121,5
DA:123,2
DA:124,2
DA:126,1
DA:128,1
DA:129,1
DA:130,1
DA:132,5
DA:134,2
DA:135,2
DA:137,1
DA:139,1
DA:140,1
DA:141,1
DA:143,5
DA:145,2
DA:146,2
DA:148,1
DA:149,1
DA:150,1
DA:152,5
DA:154,2
DA:155,2
DA:157,1
DA:159,1
DA:160,1
DA:161,1
DA:163,5
DA:165,2
DA:166,2
DA:168,1
DA:170,1
DA:171,1
DA:173,1
DA:174,1
DA:175,1
DA:177,5
DA:179,2
DA:180,2
DA:182,1
DA:183,1
DA:184,1
DA:186,5
DA:188,2
DA:189,2
DA:191,1
DA:193,1
DA:194,1
DA:195,1
DA:197,5
DA:199,2
DA:200,2
DA:202,1
DA:204,1
DA:205,1
DA:206,1
DA:208,5
DA:210,2
DA:211,2
DA:213,1
DA:214,1
DA:215,1
DA:217,5
DA:219,2
DA:220,2
DA:221,2
DA:223,1
DA:224,1
DA:226,1
DA:227,1
DA:229,1
DA:230,1
DA:231,1
DA:233,5
DA:235,2
DA:236,1
DA:237,1
DA:239,5
DA:241,2
DA:242,2
DA:243,2
DA:244,1
DA:245,1
DA:246,1
DA:248,5
DA:250,2
DA:251,2
DA:253,1
DA:254,1
DA:255,1
DA:257,5
DA:259,2
DA:260,2
DA:262,1
DA:263,1
DA:264,1
DA:266,5
DA:268,2
DA:269,2
DA:270,2
DA:271,2
DA:273,1
DA:274,1
DA:275,1
DA:276,1
DA:277,1
DA:279,5
DA:281,2
DA:282,2
DA:284,1
DA:285,1
DA:286,1
DA:288,5
DA:290,2
DA:291,2
DA:293,1
DA:297,1
DA:299,5
DA:301,2
DA:302,2
DA:304,1
DA:305,1
DA:307,5
DA:309,2
DA:310,2
DA:312,1
DA:313,1
DA:315,5
DA:317,2
DA:318,2
DA:320,1
DA:321,1
DA:322,1
DA:323,1
DA:324,1
DA:326,5
DA:328,2
DA:329,2
DA:331,1
DA:332,1
DA:333,1
DA:335,2
DA:336,2
DA:337,1
DA:338,1
DA:340,5
DA:342,2
DA:344,1
DA:345,1
DA:346,1
DA:348,5
DA:350,2
DA:351,2
DA:353,1
DA:354,1
DA:355,1
DA:357,2
DA:358,2
DA:359,1
DA:360,1
DA:362,5
DA:364,2
DA:365,2
DA:367,1
DA:368,1
DA:370,5
DA:372,2
DA:374,1
DA:375,1
DA:376,1
DA:378,5
DA:380,2
DA:381,2
DA:383,1
DA:385,2
DA:386,2
DA:387,1
DA:388,1
DA:390,5
DA:392,2
DA:393,2
DA:395,1
DA:396,1
DA:398,5
DA:400,2
DA:402,1
DA:403,1
DA:404,1
DA:406,5
DA:408,2
DA:410,1
DA:411,1
DA:413,5
DA:415,2
DA:417,1
DA:419,1
DA:420,1
DA:421,1
DA:423,5
DA:425,2
DA:427,1
DA:428,1
DA:429,1
DA:431,5
DA:433,2
DA:435,1
DA:437,1
DA:438,1
DA:439,1
DA:441,5
DA:443,2
DA:445,1
DA:446,1
DA:448,5
DA:450,2
DA:452,1
DA:454,1
DA:455,1
DA:456,1
DA:458,5
DA:460,2
DA:462,1
DA:463,1
DA:464,1
DA:466,5
DA:468,2
DA:469,2
DA:470,2
DA:472,1
DA:473,1
DA:475,5
DA:477,2
DA:478,2
DA:480,1
DA:481,1
DA:483,5
DA:485,2
DA:486,2
DA:487,2
DA:489,1
DA:490,1
DA:492,5
DA:494,2
DA:495,2
DA:496,2
DA:498,1
DA:499,1
DA:500,1
DA:501,1
DA:503,5
DA:505,2
DA:506,2
DA:507,2
DA:509,1
DA:510,1
DA:512,5
DA:514,2
DA:515,2
DA:517,2
DA:519,1
DA:520,1
DA:522,5
DA:524,2
DA:525,2
DA:527,2
DA:529,1
DA:530,1
DA:532,5
DA:534,2
DA:536,2
DA:538,1
DA:539,1
DA:541,5
DA:543,2
DA:544,2
DA:545,2
DA:547,1
DA:548,1
DA:549,1
DA:551,5
DA:553,2
DA:554,2
DA:555,2
DA:557,1
DA:558,1
DA:560,5
DA:562,2
DA:563,2
DA:564,2
DA:566,1
DA:567,1
DA:569,5
DA:571,2
DA:572,2
DA:573,2
DA:575,1
DA:576,1
DA:578,5
DA:580,2
DA:581,2
DA:583,1
DA:584,1
DA:585,1
DA:587,5
DA:589,1
DA:590,1
DA:591,1
DA:592,1
DA:593,1
DA:594,1
DA:602,20000
DA:604,20000
DA:605,20000
DA:606,20000
DA:608,0
DA:612,5
DA:614,11
DA:616,20
DA:618,10010
DA:619,10000
DA:621,20
DA:623,10010
DA:624,10000
DA:626,10
DA:628,10000
DA:629,9990
DA:631,10
DA:633,1
DA:638,39960
DA:640,39960
DA:641,39960
DA:642,39960
DA:645,39960
DA:647,39960
DA:648,39960
DA:649,39960
DA:650,39960
DA:654,19980
DA:656,19980
DA:658,39960
DA:659,39960
DA:661,39960
DA:662,19980
DA:663,19980
DA:665,19980
DA:669,20
DA:671,20
DA:673,19980
DA:674,19980
DA:676,20
DA:680,5
DA:682,11
DA:684,20
DA:685,10010
DA:686,10000
DA:688,20
DA:689,20
DA:691,10
DA:693,1
DA:697,20000
DA:699,20000
DA:701,180000
DA:703,160000
DA:704,160000
DA:707,20000
DA:711,5
DA:713,10001
DA:715,20000
DA:716,20000
DA:717,20000
DA:718,20000
DA:719,10000
DA:720,10000
DA:721,10000
DA:723,3
LF:453
LH:452
end_of_record
SF:/home/ruperson/Desktop/cpp-course/bigint/gtest/gtest.h
FN:2001,_ZN7testing8internal10scoped_ptrINSt7__cxx1112basic_stringIcSt11char_traitsIcESaIcEEEEC2EPS7_
FN:2002,_ZN7testing8internal10scoped_ptrINSt7__cxx1118basic_stringstreamIcSt11char_traitsIcESaIcEEEED2Ev
FN:2002,_ZN7testing8internal10scoped_ptrINSt7__cxx1112basic_stringIcSt11char_traitsIcESaIcEEEED2Ev
FN:2004,_ZNK7testing8internal10scoped_ptrINSt7__cxx1118basic_stringstreamIcSt11char_traitsIcESaIcEEEEdeEv
FN:2005,_ZNK7testing8internal10scoped_ptrINSt7__cxx1112basic_stringIcSt11char_traitsIcESaIcEEEEptEv
FN:2006,_ZNK7testing8internal10scoped_ptrINSt7__cxx1112basic_stringIcSt11char_traitsIcESaIcEEEE3getEv
FN:2014,_ZN7testing8internal10scoped_ptrINSt7__cxx1112basic_stringIcSt11char_traitsIcESaIcEEEE5resetEPS7_
FN:2014,_ZN7testing8internal10scoped_ptrINSt7__cxx1118basic_stringstreamIcSt11char_traitsIcESaIcEEEE5resetEPS7_
FN:3157,_ZN7testing7MessageD2Ev
FN:3187,_ZN7testing7MessagelsIA5_cEERS0_RKT_
FN:3187,_ZN7testing7MessagelsINSt7__cxx1112basic_stringIcSt11char_traitsIcESaIcEEEEERS0_RKT_
FN:3187,_ZN7testing7MessagelsIA12_cEERS0_RKT_
FN:3187,_ZN7testing7MessagelsIA6_cEERS0_RKT_
FN:3187,_ZN7testing7MessagelsIA7_cEERS0_RKT_
FN:3221,_ZN7testing7MessagelsIKcEERS0_RKPT_
FN:7396,_ZN7testing8internal15TestFactoryBaseD2Ev
FN:7396,_ZN7testing8internal15TestFactoryBaseD0Ev
FN:7403,_ZN7testing8internal15TestFactoryBaseC2Ev
FN:7412,_ZN7testing8internal15TestFactoryImplI32correctness_add_long_signed_TestED0Ev
FN:7412,_ZN7testing8internal15TestFactoryImplI25correctness_mul_long_TestED0Ev
FN:7412,_ZN7testing8internal15TestFactoryImplI32correctness_div_long_signed_TestED2Ev
FN:7412,_ZN7testing8internal15TestFactoryImplI28correctness_ctor_limits_TestED2Ev
FN:7412,_ZN7testing8internal15TestFactoryImplI23correctness_shr_31_TestED0Ev
FN:7412,_ZN7testing8internal15TestFactoryImplI25correctness_add_long_TestEC2Ev
FN:7412,_ZN7testing8internal15TestFactoryImplI27correctness_div_signed_TestEC2Ev
FN:7412,_ZN7testing8internal15TestFactoryImplI33correctness_shl_return_value_TestED0Ev
FN:7412,_ZN7testing8internal15TestFactoryImplI27correctness_shr_signed_TestEC2Ev
FN:7412,_ZN7testing8internal15TestFactoryImplI29correctness_two_plus_two_TestED2Ev
FN:7412,_ZN7testing8internal15TestFactoryImplI33correctness_shl_return_value_TestEC2Ev
FN:7412,_ZN7testing8internal15TestFactoryImplI28correctness_comparisons_TestEC2Ev
FN:7412,_ZN7testing8internal15TestFactoryImplI21correctness_shl__TestED0Ev
FN:7412,_ZN7testing8internal15TestFactoryImplI33correctness_sub_return_value_TestED0Ev
FN:7412,_ZN7testing8internal15TestFactoryImplI25correctness_sub_long_TestED2Ev
FN:7412,_ZN7testing8internal15TestFactoryImplI21correctness_xor__TestEC2Ev
FN:7412,_ZN7testing8internal15TestFactoryImplI29correctness_default_ctor_TestED2Ev
FN:7412,_ZN7testing8internal15TestFactoryImplI37correctness_copy_ctor_real_copy2_TestEC2Ev
FN:7412,_ZN7testing8internal15TestFactoryImplI33correctness_div_long_signed2_TestEC2Ev
FN:7412,_ZN7testing8internal15TestFactoryImplI33correctness_add_long_signed2_TestED2Ev
FN:7412,_ZN7testing8internal15TestFactoryImplI27correctness_mul_signed_TestEC2Ev
FN:7412,_ZN7testing8internal15TestFactoryImplI33correctness_shl_return_value_TestED2Ev
FN:7412,_ZN7testing8internal15TestFactoryImplI44correctness_compare_zero_and_minus_zero_TestED2Ev
FN:7412,_ZN7testing8internal15TestFactoryImplI28correctness_div_int_min_TestED2Ev
FN:7412,_ZN7testing8internal15TestFactoryImplI28correctness_string_conv_TestEC2Ev
FN:7412,_ZN7testing8internal15TestFactoryImplI33correctness_add_long_signed2_TestEC2Ev
FN:7412,_ZN7testing8internal15TestFactoryImplI28correctness_string_conv_TestED0Ev
FN:7412,_ZN7testing8internal15TestFactoryImplI33correctness_mul_long_signed2_TestEC2Ev
FN:7412,_ZN7testing8internal15TestFactoryImplI32correctness_mul_long_signed_TestED2Ev
FN:7412,_ZN7testing8internal15TestFactoryImplI36correctness_assignment_operator_TestED2Ev
FN:7412,_ZN7testing8internal15TestFactoryImplI33correctness_xor_return_value_TestED0Ev
FN:7412,_ZN7testing8internal15TestFactoryImplI33correctness_mul_return_value_TestEC2Ev
FN:7412,_ZN7testing8internal15TestFactoryImplI20correctness_mul_TestED0Ev
FN:7412,_ZN7testing8internal15TestFactoryImplI33correctness_sub_return_value_TestED2Ev
FN:7412,_ZN7testing8internal15TestFactoryImplI33correctness_div_return_value_TestEC2Ev
FN:7412,_ZN7testing8internal15TestFactoryImplI29correctness_default_ctor_TestED0Ev
FN:7412,_ZN7testing8internal15TestFactoryImplI33correctness_shr_return_value_TestED2Ev
FN:7412,_ZN7testing8internal15TestFactoryImplI32correctness_or_return_value_TestEC2Ev
FN:7412,_ZN7testing8internal15TestFactoryImplI33correctness_xor_return_value_TestED2Ev
FN:7412,_ZN7testing8internal15TestFactoryImplI32correctness_self_assignment_TestED2Ev
FN:7412,_ZN7testing8internal15TestFactoryImplI35correctness_mul_div_randomized_TestED2Ev
FN:7412,_ZN7testing8internal15TestFactoryImplI33correctness_negation_int_min_TestED0Ev
FN:7412,_ZN7testing8internal15TestFactoryImplI36correctness_copy_ctor_real_copy_TestED0Ev
FN:7412,_ZN7testing8internal15TestFactoryImplI20correctness_add_TestED0Ev
FN:7412,_ZN7testing8internal15TestFactoryImplI31correctness_div_randomized_TestED0Ev
FN:7412,_ZN7testing8internal15TestFactoryImplI30correctness_div_int_min_2_TestED2Ev
FN:7412,_ZN7testing8internal15TestFactoryImplI29correctness_div_rounding_TestEC2Ev
FN:7412,_ZN7testing8internal15TestFactoryImplI33correctness_div_return_value_TestED0Ev
FN:7412,_ZN7testing8internal15TestFactoryImplI27correctness_and_signed_TestED2Ev
FN:7412,_ZN7testing8internal15TestFactoryImplI21correctness_shl__TestEC2Ev
FN:7412,_ZN7testing8internal15TestFactoryImplI27correctness_xor_signed_TestEC2Ev
FN:7412,_ZN7testing8internal15TestFactoryImplI33correctness_xor_return_value_TestEC2Ev
FN:7412,_ZN7testing8internal15TestFactoryImplI38correctness_div_rounding_negative_TestED2Ev
FN:7412,_ZN7testing8internal15TestFactoryImplI20correctness_sub_TestED2Ev
FN:7412,_ZN7testing8internal15TestFactoryImplI30correctness_negation_long_TestED0Ev
FN:7412,_ZN7testing8internal15TestFactoryImplI25correctness_sub_long_TestEC2Ev
FN:7412,_ZN7testing8internal15TestFactoryImplI23correctness_shr_31_TestEC2Ev
FN:7412,_ZN7testing8internal15TestFactoryImplI27correctness_and_signed_TestEC2Ev
FN:7412,_ZN7testing8internal15TestFactoryImplI25correctness_div_long_TestED2Ev
FN:7412,_ZN7testing8internal15TestFactoryImplI38correctness_div_rounding_negative_TestEC2Ev
FN:7412,_ZN7testing8internal15TestFactoryImplI21correctness_div__TestED2Ev
FN:7412,_ZN7testing8internal15TestFactoryImplI33correctness_add_return_value_TestEC2Ev
FN:7412,_ZN7testing8internal15TestFactoryImplI28correctness_string_conv_TestED2Ev
FN:7412,_ZN7testing8internal15TestFactoryImplI21correctness_div__TestEC2Ev
FN:7412,_ZN7testing8internal15TestFactoryImplI25correctness_negation_TestEC2Ev
FN:7412,_ZN7testing8internal15TestFactoryImplI27correctness_unary_plus_TestED2Ev
FN:7412,_ZN7testing8internal15TestFactoryImplI31correctness_div_randomized_TestED2Ev
FN:7412,_ZN7testing8internal15TestFactoryImplI33correctness_mul_long_signed2_TestED2Ev
FN:7412,_ZN7testing8internal15TestFactoryImplI36correctness_minus_from_negative_TestED2Ev
FN:7412,_ZN7testing8internal15TestFactoryImplI33correctness_add_return_value_TestED2Ev
FN:7412,_ZN7testing8internal15TestFactoryImplI27correctness_and_signed_TestED0Ev
FN:7412,_ZN7testing8internal15TestFactoryImplI35correctness_mul_div_randomized_TestEC2Ev
FN:7412,_ZN7testing8internal15TestFactoryImplI21correctness_div__TestED0Ev
FN:7412,_ZN7testing8internal15TestFactoryImplI20correctness_sub_TestED0Ev
FN:7412,_ZN7testing8internal15TestFactoryImplI32correctness_or_return_value_TestED2Ev
FN:7412,_ZN7testing8internal15TestFactoryImplI38correctness_div_rounding_negative_TestED0Ev
FN:7412,_ZN7testing8internal15TestFactoryImplI33correctness_negation_int_min_TestED2Ev
FN:7412,_ZN7testing8internal15TestFactoryImplI37correctness_copy_ctor_real_copy2_TestED0Ev
FN:7412,_ZN7testing8internal15TestFactoryImplI27correctness_mul_signed_TestED2Ev
FN:7412,_ZN7testing8internal15TestFactoryImplI44correctness_compare_zero_and_minus_zero_TestED0Ev
FN:7412,_ZN7testing8internal15TestFactoryImplI28correctness_div_int_min_TestED0Ev
FN:7412,_ZN7testing8internal15TestFactoryImplI27correctness_mul_signed_TestED0Ev
FN:7412,_ZN7testing8internal15TestFactoryImplI27correctness_add_signed_TestED2Ev
FN:7412,_ZN7testing8internal15TestFactoryImplI36correctness_minus_from_negative_TestEC2Ev
FN:7412,_ZN7testing8internal15TestFactoryImplI27correctness_xor_signed_TestED0Ev
FN:7412,_ZN7testing8internal15TestFactoryImplI29correctness_default_ctor_TestEC2Ev
FN:7412,_ZN7testing8internal15TestFactoryImplI27correctness_add_signed_TestEC2Ev
FN:7412,_ZN7testing8internal15TestFactoryImplI30correctness_div_int_min_2_TestED0Ev
FN:7412,_ZN7testing8internal15TestFactoryImplI26correctness_copy_ctor_TestED2Ev
FN:7412,_ZN7testing8internal15TestFactoryImplI21correctness_xor__TestED2Ev
FN:7412,_ZN7testing8internal15TestFactoryImplI29correctness_div_rounding_TestED2Ev
FN:7412,_ZN7testing8internal15TestFactoryImplI27correctness_add_signed_TestED0Ev
FN:7412,_ZN7testing8internal15TestFactoryImplI33correctness_mul_return_value_TestED2Ev
FN:7412,_ZN7testing8internal15TestFactoryImplI33correctness_and_return_value_TestEC2Ev
FN:7412,_ZN7testing8internal15TestFactoryImplI33correctness_negation_int_min_TestEC2Ev
FN:7412,_ZN7testing8internal15TestFactoryImplI25correctness_add_long_TestED0Ev
FN:7412,_ZN7testing8internal15TestFactoryImplI32correctness_add_long_signed_TestED2Ev
FN:7412,_ZN7testing8internal15TestFactoryImplI27correctness_div_signed_TestED0Ev
FN:7412,_ZN7testing8internal15TestFactoryImplI30correctness_add_long_pow2_TestED0Ev
FN:7412,_ZN7testing8internal15TestFactoryImplI33correctness_add_return_value_TestED0Ev
FN:7412,_ZN7testing8internal15TestFactoryImplI27correctness_xor_signed_TestED2Ev
FN:7412,_ZN7testing8internal15TestFactoryImplI30correctness_mul_long_pow2_TestED0Ev
FN:7412,_ZN7testing8internal15TestFactoryImplI33correctness_and_return_value_TestED0Ev
FN:7412,_ZN7testing8internal15TestFactoryImplI30correctness_negation_long_TestEC2Ev
FN:7412,_ZN7testing8internal15TestFactoryImplI31correctness_div_randomized_TestEC2Ev
FN:7412,_ZN7testing8internal15TestFactoryImplI21correctness_and__TestEC2Ev
FN:7412,_ZN7testing8internal15TestFactoryImplI28correctness_ctor_limits_TestEC2Ev
FN:7412,_ZN7testing8internal15TestFactoryImplI25correctness_negation_TestED0Ev
FN:7412,_ZN7testing8internal15TestFactoryImplI35correctness_mul_div_randomized_TestED0Ev
FN:7412,_ZN7testing8internal15TestFactoryImplI27correctness_sub_signed_TestEC2Ev
FN:7412,_ZN7testing8internal15TestFactoryImplI26correctness_copy_ctor_TestEC2Ev
FN:7412,_ZN7testing8internal15TestFactoryImplI32correctness_self_assignment_TestED0Ev
FN:7412,_ZN7testing8internal15TestFactoryImplI28correctness_ctor_limits_TestED0Ev
FN:7412,_ZN7testing8internal15TestFactoryImplI27correctness_shr_signed_TestED0Ev
FN:7412,_ZN7testing8internal15TestFactoryImplI30correctness_mul_long_pow2_TestEC2Ev
FN:7412,_ZN7testing8internal15TestFactoryImplI40correctness_assignment_return_value_TestED2Ev
FN:7412,_ZN7testing8internal15TestFactoryImplI25correctness_sub_long_TestED0Ev
FN:7412,_ZN7testing8internal15TestFactoryImplI28correctness_comparisons_TestED2Ev
FN:7412,_ZN7testing8internal15TestFactoryImplI28correctness_div_int_min_TestEC2Ev
FN:7412,_ZN7testing8internal15TestFactoryImplI28correctness_comparisons_TestED0Ev
FN:7412,_ZN7testing8internal15TestFactoryImplI21correctness_not__TestEC2Ev
FN:7412,_ZN7testing8internal15TestFactoryImplI30correctness_mul_long_pow2_TestED2Ev
FN:7412,_ZN7testing8internal15TestFactoryImplI40correctness_assignment_return_value_TestED0Ev
FN:7412,_ZN7testing8internal15TestFactoryImplI32correctness_or_return_value_TestED0Ev
FN:7412,_ZN7testing8internal15TestFactoryImplI26correctness_or_signed_TestEC2Ev
FN:7412,_ZN7testing8internal15TestFactoryImplI33correctness_div_long_signed2_TestED0Ev
FN:7412,_ZN7testing8internal15TestFactoryImplI29correctness_two_plus_two_TestED0Ev
FN:7412,_ZN7testing8internal15TestFactoryImplI25correctness_mul_long_TestEC2Ev
FN:7412,_ZN7testing8internal15TestFactoryImplI37correctness_mul_merge_randomized_TestED0Ev
FN:7412,_ZN7testing8internal15TestFactoryImplI33correctness_div_long_signed2_TestED2Ev
FN:7412,_ZN7testing8internal15TestFactoryImplI30correctness_div_int_min_2_TestEC2Ev
FN:7412,_ZN7testing8internal15TestFactoryImplI25correctness_div_long_TestEC2Ev
FN:7412,_ZN7testing8internal15TestFactoryImplI25correctness_add_long_TestED2Ev
FN:7412,_ZN7testing8internal15TestFactoryImplI20correctness_or__TestED0Ev
FN:7412,_ZN7testing8internal15TestFactoryImplI25correctness_negation_TestED2Ev
FN:7412,_ZN7testing8internal15TestFactoryImplI21correctness_shr__TestED2Ev
FN:7412,_ZN7testing8internal15TestFactoryImplI36correctness_assignment_operator_TestEC2Ev
FN:7412,_ZN7testing8internal15TestFactoryImplI26correctness_or_signed_TestED2Ev
FN:7412,_ZN7testing8internal15TestFactoryImplI27correctness_sub_signed_TestED2Ev
FN:7412,_ZN7testing8internal15TestFactoryImplI44correctness_compare_zero_and_minus_zero_TestEC2Ev
FN:7412,_ZN7testing8internal15TestFactoryImplI27correctness_sub_signed_TestED0Ev
FN:7412,_ZN7testing8internal15TestFactoryImplI37correctness_mul_merge_randomized_TestED2Ev
FN:7412,_ZN7testing8internal15TestFactoryImplI20correctness_add_TestED2Ev
FN:7412,_ZN7testing8internal15TestFactoryImplI21correctness_xor__TestED0Ev
FN:7412,_ZN7testing8internal15TestFactoryImplI33correctness_shr_return_value_TestEC2Ev
FN:7412,_ZN7testing8internal15TestFactoryImplI40correctness_assignment_return_value_TestEC2Ev
FN:7412,_ZN7testing8internal15TestFactoryImplI33correctness_mul_long_signed2_TestED0Ev
FN:7412,_ZN7testing8internal15TestFactoryImplI37correctness_mul_merge_randomized_TestEC2Ev
FN:7412,_ZN7testing8internal15TestFactoryImplI26correctness_or_signed_TestED0Ev
FN:7412,_ZN7testing8internal15TestFactoryImplI21correctness_shr__TestED0Ev
FN:7412,_ZN7testing8internal15TestFactoryImplI21correctness_and__TestED0Ev
FN:7412,_ZN7testing8internal15TestFactoryImplI23correctness_shr_31_TestED2Ev
FN:7412,_ZN7testing8internal15TestFactoryImplI36correctness_copy_ctor_real_copy_TestEC2Ev
FN:7412,_ZN7testing8internal15TestFactoryImplI32correctness_self_assignment_TestEC2Ev
FN:7412,_ZN7testing8internal15TestFactoryImplI32correctness_div_long_signed_TestED0Ev
FN:7412,_ZN7testing8internal15TestFactoryImplI33correctness_add_long_signed2_TestED0Ev
FN:7412,_ZN7testing8internal15TestFactoryImplI33correctness_div_return_value_TestED2Ev
FN:7412,_ZN7testing8internal15TestFactoryImplI36correctness_minus_from_negative_TestED0Ev
FN:7412,_ZN7testing8internal15TestFactoryImplI33correctness_shr_return_value_TestED0Ev
FN:7412,_ZN7testing8internal15TestFactoryImplI32correctness_mul_long_signed_TestEC2Ev
FN:7412,_ZN7testing8internal15TestFactoryImplI27correctness_div_signed_TestED2Ev
FN:7412,_ZN7testing8internal15TestFactoryImplI37correctness_copy_ctor_real_copy2_TestED2Ev
FN:7412,_ZN7testing8internal15TestFactoryImplI32correctness_add_long_signed_TestEC2Ev
FN:7412,_ZN7testing8internal15TestFactoryImplI32correctness_mul_long_signed_TestED0Ev
FN:7412,_ZN7testing8internal15TestFactoryImplI25correctness_div_long_TestED0Ev
FN:7412,_ZN7testing8internal15TestFactoryImplI29correctness_two_plus_two_TestEC2Ev
FN:7412,_ZN7testing8internal15TestFactoryImplI21correctness_shr__TestEC2Ev
FN:7412,_ZN7testing8internal15TestFactoryImplI25correctness_mul_long_TestED2Ev
FN:7412,_ZN7testing8internal15TestFactoryImplI20correctness_sub_TestEC2Ev
FN:7412,_ZN7testing8internal15TestFactoryImplI32correctness_div_long_signed_TestEC2Ev
FN:7412,_ZN7testing8internal15TestFactoryImplI20correctness_or__TestEC2Ev
FN:7412,_ZN7testing8internal15TestFactoryImplI30correctness_add_long_pow2_TestED2Ev
FN:7412,_ZN7testing8internal15TestFactoryImplI21correctness_shl__TestED2Ev
FN:7412,_ZN7testing8internal15TestFactoryImplI20correctness_mul_TestEC2Ev
FN:7412,_ZN7testing8internal15TestFactoryImplI21correctness_not__TestED2Ev
FN:7412,_ZN7testing8internal15TestFactoryImplI27correctness_unary_plus_TestED0Ev
FN:7412,_ZN7testing8internal15TestFactoryImplI33correctness_mul_return_value_TestED0Ev
FN:7412,_ZN7testing8internal15TestFactoryImplI33correctness_and_return_value_TestED2Ev
FN:7412,_ZN7testing8internal15TestFactoryImplI36correctness_copy_ctor_real_copy_TestED2Ev
FN:7412,_ZN7testing8internal15TestFactoryImplI20correctness_or__TestED2Ev
FN:7412,_ZN7testing8internal15TestFactoryImplI29correctness_div_rounding_TestED0Ev
FN:7412,_ZN7testing8internal15TestFactoryImplI33correctness_sub_return_value_TestEC2Ev
FN:7412,_ZN7testing8internal15TestFactoryImplI20correctness_mul_TestED2Ev
FN:7412,_ZN7testing8internal15TestFactoryImplI30correctness_add_long_pow2_TestEC2Ev
FN:7412,_ZN7testing8internal15TestFactoryImplI36correctness_assignment_operator_TestED0Ev
FN:7412,_ZN7testing8internal15TestFactoryImplI20correctness_add_TestEC2Ev
FN:7412,_ZN7testing8internal15TestFactoryImplI26correctness_copy_ctor_TestED0Ev
FN:7412,_ZN7testing8internal15TestFactoryImplI30correctness_negation_long_TestED2Ev
FN:7412,_ZN7testing8internal15TestFactoryImplI27correctness_shr_signed_TestED2Ev
FN:7412,_ZN7testing8internal15TestFactoryImplI27correctness_unary_plus_TestEC2Ev
FN:7412,_ZN7testing8internal15TestFactoryImplI21correctness_not__TestED0Ev
FN:7412,_ZN7testing8internal15TestFactoryImplI21correctness_and__TestED2Ev
FN:7414,_ZN7testing8internal15TestFactoryImplI21correctness_xor__TestE10CreateTestEv
FN:7414,_ZN7testing8internal15TestFactoryImplI21correctness_shl__TestE10CreateTestEv
FN:7414,_ZN7testing8internal15TestFactoryImplI36correctness_minus_from_negative_TestE10CreateTestEv
FN:7414,_ZN7testing8internal15TestFactoryImplI27correctness_div_signed_TestE10CreateTestEv
FN:7414,_ZN7testing8internal15TestFactoryImplI27correctness_unary_plus_TestE10CreateTestEv
FN:7414,_ZN7testing8internal15TestFactoryImplI27correctness_mul_signed_TestE10CreateTestEv
FN:7414,_ZN7testing8internal15TestFactoryImplI30correctness_add_long_pow2_TestE10CreateTestEv
FN:7414,_ZN7testing8internal15TestFactoryImplI44correctness_compare_zero_and_minus_zero_TestE10CreateTestEv
FN:7414,_ZN7testing8internal15TestFactoryImplI37correctness_copy_ctor_real_copy2_TestE10CreateTestEv
FN:7414,_ZN7testing8internal15TestFactoryImplI32correctness_self_assignment_TestE10CreateTestEv
FN:7414,_ZN7testing8internal15TestFactoryImplI26correctness_copy_ctor_TestE10CreateTestEv
FN:7414,_ZN7testing8internal15TestFactoryImplI36correctness_assignment_operator_TestE10CreateTestEv
FN:7414,_ZN7testing8internal15TestFactoryImplI25correctness_sub_long_TestE10CreateTestEv
FN:7414,_ZN7testing8internal15TestFactoryImplI33correctness_div_return_value_TestE10CreateTestEv
FN:7414,_ZN7testing8internal15TestFactoryImplI33correctness_shl_return_value_TestE10CreateTestEv
FN:7414,_ZN7testing8internal15TestFactoryImplI30correctness_div_int_min_2_TestE10CreateTestEv
FN:7414,_ZN7testing8internal15TestFactoryImplI28correctness_string_conv_TestE10CreateTestEv
FN:7414,_ZN7testing8internal15TestFactoryImplI33correctness_negation_int_min_TestE10CreateTestEv
FN:7414,_ZN7testing8internal15TestFactoryImplI36correctness_copy_ctor_real_copy_TestE10CreateTestEv
FN:7414,_ZN7testing8internal15TestFactoryImplI25correctness_add_long_TestE10CreateTestEv
FN:7414,_ZN7testing8internal15TestFactoryImplI33correctness_mul_return_value_TestE10CreateTestEv
FN:7414,_ZN7testing8internal15TestFactoryImplI33correctness_add_return_value_TestE10CreateTestEv
FN:7414,_ZN7testing8internal15TestFactoryImplI33correctness_div_long_signed2_TestE10CreateTestEv
FN:7414,_ZN7testing8internal15TestFactoryImplI33correctness_mul_long_signed2_TestE10CreateTestEv
FN:7414,_ZN7testing8internal15TestFactoryImplI32correctness_add_long_signed_TestE10CreateTestEv
FN:7414,_ZN7testing8internal15TestFactoryImplI35correctness_mul_div_randomized_TestE10CreateTestEv
FN:7414,_ZN7testing8internal15TestFactoryImplI27correctness_shr_signed_TestE10CreateTestEv
FN:7414,_ZN7testing8internal15TestFactoryImplI33correctness_shr_return_value_TestE10CreateTestEv
FN:7414,_ZN7testing8internal15TestFactoryImplI25correctness_div_long_TestE10CreateTestEv
FN:7414,_ZN7testing8internal15TestFactoryImplI27correctness_and_signed_TestE10CreateTestEv
FN:7414,_ZN7testing8internal15TestFactoryImplI38correctness_div_rounding_negative_TestE10CreateTestEv
FN:7414,_ZN7testing8internal15TestFactoryImplI28correctness_div_int_min_TestE10CreateTestEv
FN:7414,_ZN7testing8internal15TestFactoryImplI20correctness_add_TestE10CreateTestEv
FN:7414,_ZN7testing8internal15TestFactoryImplI33correctness_add_long_signed2_TestE10CreateTestEv
FN:7414,_ZN7testing8internal15TestFactoryImplI40correctness_assignment_return_value_TestE10CreateTestEv
FN:7414,_ZN7testing8internal15TestFactoryImplI21correctness_div__TestE10CreateTestEv
FN:7414,_ZN7testing8internal15TestFactoryImplI20correctness_sub_TestE10CreateTestEv
FN:7414,_ZN7testing8internal15TestFactoryImplI29correctness_default_ctor_TestE10CreateTestEv
FN:7414,_ZN7testing8internal15TestFactoryImplI33correctness_xor_return_value_TestE10CreateTestEv
FN:7414,_ZN7testing8internal15TestFactoryImplI27correctness_xor_signed_TestE10CreateTestEv
FN:7414,_ZN7testing8internal15TestFactoryImplI28correctness_ctor_limits_TestE10CreateTestEv
FN:7414,_ZN7testing8internal15TestFactoryImplI32correctness_div_long_signed_TestE10CreateTestEv
FN:7414,_ZN7testing8internal15TestFactoryImplI30correctness_mul_long_pow2_TestE10CreateTestEv
FN:7414,_ZN7testing8internal15TestFactoryImplI28correctness_comparisons_TestE10CreateTestEv
FN:7414,_ZN7testing8internal15TestFactoryImplI33correctness_sub_return_value_TestE10CreateTestEv
FN:7414,_ZN7testing8internal15TestFactoryImplI30correctness_negation_long_TestE10CreateTestEv
FN:7414,_ZN7testing8internal15TestFactoryImplI27correctness_add_signed_TestE10CreateTestEv
FN:7414,_ZN7testing8internal15TestFactoryImplI25correctness_mul_long_TestE10CreateTestEv
FN:7414,_ZN7testing8internal15TestFactoryImplI31correctness_div_randomized_TestE10CreateTestEv
FN:7414,_ZN7testing8internal15TestFactoryImplI27correctness_sub_signed_TestE10CreateTestEv
FN:7414,_ZN7testing8internal15TestFactoryImplI21correctness_not__TestE10CreateTestEv
FN:7414,_ZN7testing8internal15TestFactoryImplI32correctness_mul_long_signed_TestE10CreateTestEv
FN:7414,_ZN7testing8internal15TestFactoryImplI29correctness_two_plus_two_TestE10CreateTestEv
FN:7414,_ZN7testing8internal15TestFactoryImplI25correctness_negation_TestE10CreateTestEv
FN:7414,_ZN7testing8internal15TestFactoryImplI37correctness_mul_merge_randomized_TestE10CreateTestEv
FN:7414,_ZN7testing8internal15TestFactoryImplI26correctness_or_signed_TestE10CreateTestEv
FN:7414,_ZN7testing8internal15TestFactoryImplI33correctness_and_return_value_TestE10CreateTestEv
FN:7414,_ZN7testing8internal15TestFactoryImplI23correctness_shr_31_TestE10CreateTestEv
FN:7414,_ZN7testing8internal15TestFactoryImplI20correctness_or__TestE10CreateTestEv
FN:7414,_ZN7testing8internal15TestFactoryImplI29correctness_div_rounding_TestE10CreateTestEv
FN:7414,_ZN7testing8internal15TestFactoryImplI20correctness_mul_TestE10CreateTestEv
FN:7414,_ZN7testing8internal15TestFactoryImplI21correctness_and__TestE10CreateTestEv
FN:7414,_ZN7testing8internal15TestFactoryImplI21correctness_shr__TestE10CreateTestEv
FN:7414,_ZN7testing8internal15TestFactoryImplI32correctness_or_return_value_TestE10CreateTestEv
FN:7829,_ZN7testing8internal15IsContainerTestIiEEcl
FN:7829,_ZN7testing8internal15IsContainerTestI11big_integerEEcl
FN:9409,_ZN16testing_internal26DefaultPrintNonContainerToI11big_integerEEvRKT_PSo
FN:9409,_ZN16testing_internal26DefaultPrintNonContainerToIiEEvRKT_PSo
FN:9526,_ZN7testing8internal14DefaultPrintToI11big_integerEEvcNS0_13bool_constantILb0EEERKT_PSo
FN:9526,_ZN7testing8internal14DefaultPrintToIiEEvcNS0_13bool_constantILb0EEERKT_PSo
FN:9544,_ZN7testing8internal7PrintToI11big_integerEEvRKT_PSo
FN:9544,_ZN7testing8internal7PrintToIiEEvRKT_PSo
FN:9655,_ZN7testing8internal7PrintToERKNSt7__cxx1112basic_stringIcSt11char_traitsIcESaIcEEEPSo
FN:9782,_ZN7testing8internal16UniversalPrinterI11big_integerE5PrintERKS2_PSo
FN:9782,_ZN7testing8internal16UniversalPrinterINSt7__cxx1112basic_stringIcSt11char_traitsIcESaIcEEEE5PrintERKS7_PSo
FN:9782,_ZN7testing8internal16UniversalPrinterIiE5PrintERKiPSo
FN:9874,_ZN7testing8internal21UniversalTersePrinterINSt7__cxx1112basic_stringIcSt11char_traitsIcESaIcEEEE5PrintERKS7_PSo
FN:9874,_ZN7testing8internal21UniversalTersePrinterI11big_integerE5PrintERKS2_PSo
FN:9874,_ZN7testing8internal21UniversalTersePrinterIiE5PrintERKiPSo
FN:9895,_ZN7testing8internal21UniversalTersePrinterIPKcE5PrintES3_PSo
FN:9943,_ZN7testing8internal14UniversalPrintIiEEvRKT_PSo
FN:9943,_ZN7testing8internal14UniversalPrintINSt7__cxx1112basic_stringIcSt11char_traitsIcESaIcEEEEEvRKT_PSo
FN:9943,_ZN7testing8internal14UniversalPrintI11big_integerEEvRKT_PSo
FN:10038,_ZN7testing13PrintToStringIPKcEENSt7__cxx1112basic_stringIcSt11char_traitsIcESaIcEEERKT_
FN:10038,_ZN7testing13PrintToStringINSt7__cxx1112basic_stringIcSt11char_traitsIcESaIcEEEEES6_RKT_
FN:10038,_ZN7testing13PrintToStringI11big_integerEENSt7__cxx1112basic_stringIcSt11char_traitsIcESaIcEEERKT_
FN:10038,_ZN7testing13PrintToStringIiEENSt7__cxx1112basic_stringIcSt11char_traitsIcESaIcEEERKT_
FN:17669,_ZN7testing15AssertionResultD2Ev
FN:17675,_ZN7testing15AssertionResultC2Eb
FN:17678,_ZNK7testing15AssertionResultcvbEv
FN:17687,_ZNK7testing15AssertionResult7messageEv
FN:17692,_ZNK7testing15AssertionResult15failure_messageEv
FN:17695,_ZN7testing15AssertionResultlsIA7_cEERS0_RKT_
FN:17695,_ZN7testing15AssertionResultlsINSt7__cxx1112basic_stringIcSt11char_traitsIcESaIcEEEEERS0_RKT_
FN:17695,_ZN7testing15AssertionResultlsIPKcEERS0_RKT_
FN:17695,_ZN7testing15AssertionResultlsIA5_cEERS0_RKT_
FN:17695,_ZN7testing15AssertionResultlsIA6_cEERS0_RKT_
FN:17695,_ZN7testing15AssertionResultlsIA12_cEERS0_RKT_
FN:17710,_ZN7testing15AssertionResult13AppendMessageERKNS_7MessageE
FN:17778,_ZN7testing4Test13SetUpTestCaseEv
FN:17786,_ZN7testing4Test16TearDownTestCaseEv
FN:17864,_ZN7testing4Test5SetupEv
FN:18770,_ZN7testing8internal19FormatForComparisonI11big_integeriE6FormatERKS2_
FN:18770,_ZN7testing8internal19FormatForComparisonI11big_integerS2_E6FormatERKS2_
FN:18770,_ZN7testing8internal19FormatForComparisonINSt7__cxx1112basic_stringIcSt11char_traitsIcESaIcEEEA4_cE6FormatERKS7_
FN:18770,_ZN7testing8internal19FormatForComparisonINSt7__cxx1112basic_stringIcSt11char_traitsIcESaIcEEEA2_cE6FormatERKS7_
FN:18770,_ZN7testing8internal19FormatForComparisonIi11big_integerE6FormatERKi
FN:18770,_ZN7testing8internal19FormatForComparisonINSt7__cxx1112basic_stringIcSt11char_traitsIcESaIcEEEA18_cE6FormatERKS7_
FN:18779,_ZN7testing8internal19FormatForComparisonIA18_cNSt7__cxx1112basic_stringIcSt11char_traitsIcESaIcEEEE6FormatEPKc
FN:18779,_ZN7testing8internal19FormatForComparisonIA2_cNSt7__cxx1112basic_stringIcSt11char_traitsIcESaIcEEEE6FormatEPKc
FN:18779,_ZN7testing8internal19FormatForComparisonIA4_cNSt7__cxx1112basic_stringIcSt11char_traitsIcESaIcEEEE6FormatEPKc
FN:18816,_ZN7testing8internal19FormatForComparisonIPKcNSt7__cxx1112basic_stringIcSt11char_traitsIcESaIcEEEE6FormatES3_
FN:18844,_ZN7testing8internal33FormatForComparisonFailureMessageIA4_cNSt7__cxx1112basic_stringIcSt11char_traitsIcESaIcEEEEES8_RKT_RKT0_
FN:18844,_ZN7testing8internal33FormatForComparisonFailureMessageINSt7__cxx1112basic_stringIcSt11char_traitsIcESaIcEEEA2_cEES7_RKT_RKT0_
FN:18844,_ZN7testing8internal33FormatForComparisonFailureMessageIA2_cNSt7__cxx1112basic_stringIcSt11char_traitsIcESaIcEEEEES8_RKT_RKT0_
FN:18844,_ZN7testing8internal33FormatForComparisonFailureMessageI11big_integerS2_EENSt7__cxx1112basic_stringIcSt11char_traitsIcESaIcEEERKT_RKT0_
FN:18844,_ZN7testing8internal33FormatForComparisonFailureMessageINSt7__cxx1112basic_stringIcSt11char_traitsIcESaIcEEEA4_cEES7_RKT_RKT0_
FN:18844,_ZN7testing8internal33FormatForComparisonFailureMessageI11big_integeriEENSt7__cxx1112basic_stringIcSt11char_traitsIcESaIcEEERKT_RKT0_
FN:18844,_ZN7testing8internal33FormatForComparisonFailureMessageINSt7__cxx1112basic_stringIcSt11char_traitsIcESaIcEEEA18_cEES7_RKT_RKT0_
FN:18844,_ZN7testing8internal33FormatForComparisonFailureMessageIA18_cNSt7__cxx1112basic_stringIcSt11char_traitsIcESaIcEEEEES8_RKT_RKT0_
FN:18844,_ZN7testing8internal33FormatForComparisonFailureMessageIi11big_integerEENSt7__cxx1112basic_stringIcSt11char_traitsIcESaIcEEERKT_RKT0_
FN:18851,_ZN7testing8internal11CmpHelperEQI11big_integerS2_EENS_15AssertionResultEPKcS5_RKT_RKT0_
FN:18851,_ZN7testing8internal11CmpHelperEQINSt7__cxx1112basic_stringIcSt11char_traitsIcESaIcEEEA18_cEENS_15AssertionResultEPKcSB_RKT_RKT0_
FN:18851,_ZN7testing8internal11CmpHelperEQINSt7__cxx1112basic_stringIcSt11char_traitsIcESaIcEEEA2_cEENS_15AssertionResultEPKcSB_RKT_RKT0_
FN:18851,_ZN7testing8internal11CmpHelperEQINSt7__cxx1112basic_stringIcSt11char_traitsIcESaIcEEEA4_cEENS_15AssertionResultEPKcSB_RKT_RKT0_
FN:18851,_ZN7testing8internal11CmpHelperEQIi11big_integerEENS_15AssertionResultEPKcS5_RKT_RKT0_
FN:18851,_ZN7testing8internal11CmpHelperEQI11big_integeriEENS_15AssertionResultEPKcS5_RKT_RKT0_
FN:18893,_ZN7testing8internal8EqHelperILb0EE7CompareI11big_integeriEENS_15AssertionResultEPKcS7_RKT_RKT0_
FN:18893,_ZN7testing8internal8EqHelperILb0EE7CompareINSt7__cxx1112basic_stringIcSt11char_traitsIcESaIcEEEA18_cEENS_15AssertionResultEPKcSD_RKT_RKT0_
FN:18893,_ZN7testing8internal8EqHelperILb0EE7CompareINSt7__cxx1112basic_stringIcSt11char_traitsIcESaIcEEEA2_cEENS_15AssertionResultEPKcSD_RKT_RKT0_
FN:18893,_ZN7testing8internal8EqHelperILb0EE7CompareINSt7__cxx1112basic_stringIcSt11char_traitsIcESaIcEEEA4_cEENS_15AssertionResultEPKcSD_RKT_RKT0_
FN:18893,_ZN7testing8internal8EqHelperILb0EE7CompareI11big_integerS4_EENS_15AssertionResultEPKcS7_RKT_RKT0_
FN:18893,_ZN7testing8internal8EqHelperILb0EE7CompareIi11big_integerEENS_15AssertionResultEPKcS7_RKT_RKT0_
FN:18994,_ZN7testing8internal11CmpHelperLTI11big_integerS2_EENS_15AssertionResultEPKcS5_RKT_RKT0_
FN:18996,_ZN7testing8internal11CmpHelperGEI11big_integeriEENS_15AssertionResultEPKcS5_RKT_RKT0_
FNDA:70091,_ZN7testing8internal10scoped_ptrINSt7__cxx1112basic_stringIcSt11char_traitsIcESaIcEEEEC2EPS7_
FNDA:70091,_ZN7testing8internal10scoped_ptrINSt7__cxx1112basic_stringIcSt11char_traitsIcESaIcEEEED2Ev
FNDA:118,_ZN7testing8internal10scoped_ptrINSt7__cxx1118basic_stringstreamIcSt11char_traitsIcESaIcEEEED2Ev
FNDA:530,_ZNK7testing8internal10scoped_ptrINSt7__cxx1118basic_stringstreamIcSt11char_traitsIcESaIcEEEEdeEv
FNDA:4,_ZNK7testing8internal10scoped_ptrINSt7__cxx1112basic_stringIcSt11char_traitsIcESaIcEEEEptEv
FNDA:6,_ZNK7testing8internal10scoped_ptrINSt7__cxx1112basic_stringIcSt11char_traitsIcESaIcEEEE3getEv
FNDA:118,_ZN7testing8internal10scoped_ptrINSt7__cxx1118basic_stringstreamIcSt11char_traitsIcESaIcEEEE5resetEPS7_
FNDA:70093,_ZN7testing8internal10scoped_ptrINSt7__cxx1112basic_stringIcSt11char_traitsIcESaIcEEEE5resetEPS7_
FNDA:118,_ZN7testing7MessageD2Ev
FNDA:0,_ZN7testing7MessagelsIA6_cEERS0_RKT_
FNDA:0,_ZN7testing7MessagelsIA5_cEERS0_RKT_
FNDA:6,_ZN7testing7MessagelsINSt7__cxx1112basic_stringIcSt11char_traitsIcESaIcEEEEERS0_RKT_
FNDA:15,_ZN7testing7MessagelsIA7_cEERS0_RKT_
FNDA:4,_ZN7testing7MessagelsIA12_cEERS0_RKT_
FNDA:23,_ZN7testing7MessagelsIKcEERS0_RKPT_
FNDA:0,_ZN7testing8internal15TestFactoryBaseD0Ev
FNDA:0,_ZN7testing8internal15TestFactoryBaseD2Ev
FNDA:64,_ZN7testing8internal15TestFactoryBaseC2Ev
FNDA:0,_ZN7testing8internal15TestFactoryImplI36correctness_minus_from_negative_TestED0Ev
FNDA:0,_ZN7testing8internal15TestFactoryImplI36correctness_minus_from_negative_TestED2Ev
FNDA:0,_ZN7testing8internal15TestFactoryImplI29correctness_two_plus_two_TestED0Ev
FNDA:0,_ZN7testing8internal15TestFactoryImplI29correctness_two_plus_two_TestED2Ev
FNDA:0,_ZN7testing8internal15TestFactoryImplI29correctness_default_ctor_TestED0Ev
FNDA:0,_ZN7testing8internal15TestFactoryImplI29correctness_default_ctor_TestED2Ev
FNDA:0,_ZN7testing8internal15TestFactoryImplI28correctness_ctor_limits_TestED0Ev
FNDA:0,_ZN7testing8internal15TestFactoryImplI28correctness_ctor_limits_TestED2Ev
FNDA:0,_ZN7testing8internal15TestFactoryImplI26correctness_copy_ctor_TestED0Ev
FNDA:0,_ZN7testing8internal15TestFactoryImplI26correctness_copy_ctor_TestED2Ev
FNDA:0,_ZN7testing8internal15TestFactoryImplI36correctness_copy_ctor_real_copy_TestED0Ev
FNDA:0,_ZN7testing8internal15TestFactoryImplI36correctness_copy_ctor_real_copy_TestED2Ev
FNDA:0,_ZN7testing8internal15TestFactoryImplI37correctness_copy_ctor_real_copy2_TestED0Ev
FNDA:0,_ZN7testing8internal15TestFactoryImplI37correctness_copy_ctor_real_copy2_TestED2Ev
FNDA:0,_ZN7testing8internal15TestFactoryImplI36correctness_assignment_operator_TestED0Ev
FNDA:0,_ZN7testing8internal15TestFactoryImplI36correctness_assignment_operator_TestED2Ev
FNDA:0,_ZN7testing8internal15TestFactoryImplI32correctness_self_assignment_TestED0Ev
FNDA:0,_ZN7testing8internal15TestFactoryImplI32correctness_self_assignment_TestED2Ev
FNDA:0,_ZN7testing8internal15TestFactoryImplI40correctness_assignment_return_value_TestED0Ev
FNDA:0,_ZN7testing8internal15TestFactoryImplI40correctness_assignment_return_value_TestED2Ev
FNDA:0,_ZN7testing8internal15TestFactoryImplI28correctness_comparisons_TestED0Ev
FNDA:0,_ZN7testing8internal15TestFactoryImplI28correctness_comparisons_TestED2Ev
FNDA:0,_ZN7testing8internal15TestFactoryImplI44correctness_compare_zero_and_minus_zero_TestED0Ev
FNDA:0,_ZN7testing8internal15TestFactoryImplI44correctness_compare_zero_and_minus_zero_TestED2Ev
FNDA:0,_ZN7testing8internal15TestFactoryImplI20correctness_add_TestED0Ev
FNDA:0,_ZN7testing8internal15TestFactoryImplI20correctness_add_TestED2Ev
FNDA:0,_ZN7testing8internal15TestFactoryImplI27correctness_add_signed_TestED0Ev
FNDA:0,_ZN7testing8internal15TestFactoryImplI27correctness_add_signed_TestED2Ev
FNDA:0,_ZN7testing8internal15TestFactoryImplI33correctness_add_return_value_TestED0Ev
FNDA:0,_ZN7testing8internal15TestFactoryImplI33correctness_add_return_value_TestED2Ev
FNDA:0,_ZN7testing8internal15TestFactoryImplI20correctness_sub_TestED0Ev
FNDA:0,_ZN7testing8internal15TestFactoryImplI20correctness_sub_TestED2Ev
FNDA:0,_ZN7testing8internal15TestFactoryImplI27correctness_sub_signed_TestED0Ev
FNDA:0,_ZN7testing8internal15TestFactoryImplI27correctness_sub_signed_TestED2Ev
FNDA:0,_ZN7testing8internal15TestFactoryImplI33correctness_sub_return_value_TestED0Ev
FNDA:0,_ZN7testing8internal15TestFactoryImplI33correctness_sub_return_value_TestED2Ev
FNDA:0,_ZN7testing8internal15TestFactoryImplI20correctness_mul_TestED0Ev
FNDA:0,_ZN7testing8internal15TestFactoryImplI20correctness_mul_TestED2Ev
FNDA:0,_ZN7testing8internal15TestFactoryImplI27correctness_mul_signed_TestED0Ev
FNDA:0,_ZN7testing8internal15TestFactoryImplI27correctness_mul_signed_TestED2Ev
FNDA:0,_ZN7testing8internal15TestFactoryImplI33correctness_mul_return_value_TestED0Ev
FNDA:0,_ZN7testing8internal15TestFactoryImplI33correctness_mul_return_value_TestED2Ev
FNDA:0,_ZN7testing8internal15TestFactoryImplI21correctness_div__TestED0Ev
FNDA:0,_ZN7testing8internal15TestFactoryImplI21correctness_div__TestED2Ev
FNDA:0,_ZN7testing8internal15TestFactoryImplI28correctness_div_int_min_TestED0Ev
FNDA:0,_ZN7testing8internal15TestFactoryImplI28correctness_div_int_min_TestED2Ev
FNDA:0,_ZN7testing8internal15TestFactoryImplI30correctness_div_int_min_2_TestED0Ev
FNDA:0,_ZN7testing8internal15TestFactoryImplI30correctness_div_int_min_2_TestED2Ev
FNDA:0,_ZN7testing8internal15TestFactoryImplI27correctness_div_signed_TestED0Ev
FNDA:0,_ZN7testing8internal15TestFactoryImplI27correctness_div_signed_TestED2Ev
FNDA:0,_ZN7testing8internal15TestFactoryImplI29correctness_div_rounding_TestED0Ev
FNDA:0,_ZN7testing8internal15TestFactoryImplI29correctness_div_rounding_TestED2Ev
FNDA:0,_ZN7testing8internal15TestFactoryImplI38correctness_div_rounding_negative_TestED0Ev
FNDA:0,_ZN7testing8internal15TestFactoryImplI38correctness_div_rounding_negative_TestED2Ev
FNDA:0,_ZN7testing8internal15TestFactoryImplI33correctness_div_return_value_TestED0Ev
FNDA:0,_ZN7testing8internal15TestFactoryImplI33correctness_div_return_value_TestED2Ev
FNDA:0,_ZN7testing8internal15TestFactoryImplI27correctness_unary_plus_TestED0Ev
FNDA:0,_ZN7testing8internal15TestFactoryImplI27correctness_unary_plus_TestED2Ev
FNDA:0,_ZN7testing8internal15TestFactoryImplI25correctness_negation_TestED0Ev
FNDA:0,_ZN7testing8internal15TestFactoryImplI25correctness_negation_TestED2Ev
FNDA:0,_ZN7testing8internal15TestFactoryImplI33correctness_negation_int_min_TestED0Ev
FNDA:0,_ZN7testing8internal15TestFactoryImplI33correctness_negation_int_min_TestED2Ev
FNDA:0,_ZN7testing8internal15TestFactoryImplI21correctness_and__TestED0Ev
FNDA:0,_ZN7testing8internal15TestFactoryImplI21correctness_and__TestED2Ev
FNDA:0,_ZN7testing8internal15TestFactoryImplI27correctness_and_signed_TestED0Ev
FNDA:0,_ZN7testing8internal15TestFactoryImplI27correctness_and_signed_TestED2Ev
FNDA:0,_ZN7testing8internal15TestFactoryImplI33correctness_and_return_value_TestED0Ev
FNDA:0,_ZN7testing8internal15TestFactoryImplI33correctness_and_return_value_TestED2Ev
FNDA:0,_ZN7testing8internal15TestFactoryImplI20correctness_or__TestED0Ev
FNDA:0,_ZN7testing8internal15TestFactoryImplI20correctness_or__TestED2Ev
FNDA:0,_ZN7testing8internal15TestFactoryImplI26correctness_or_signed_TestED0Ev
FNDA:0,_ZN7testing8internal15TestFactoryImplI26correctness_or_signed_TestED2Ev
FNDA:0,_ZN7testing8internal15TestFactoryImplI32correctness_or_return_value_TestED0Ev
FNDA:0,_ZN7testing8internal15TestFactoryImplI32correctness_or_return_value_TestED2Ev
FNDA:0,_ZN7testing8internal15TestFactoryImplI21correctness_xor__TestED0Ev
FNDA:0,_ZN7testing8internal15TestFactoryImplI21correctness_xor__TestED2Ev
FNDA:0,_ZN7testing8internal15TestFactoryImplI27correctness_xor_signed_TestED0Ev
FNDA:0,_ZN7testing8internal15TestFactoryImplI27correctness_xor_signed_TestED2Ev
FNDA:0,_ZN7testing8internal15TestFactoryImplI33correctness_xor_return_value_TestED0Ev
FNDA:0,_ZN7testing8internal15TestFactoryImplI33correctness_xor_return_value_TestED2Ev
FNDA:0,_ZN7testing8internal15TestFactoryImplI21correctness_not__TestED0Ev
FNDA:0,_ZN7testing8internal15TestFactoryImplI21correctness_not__TestED2Ev
FNDA:0,_ZN7testing8internal15TestFactoryImplI21correctness_shl__TestED0Ev
FNDA:0,_ZN7testing8internal15TestFactoryImplI21correctness_shl__TestED2Ev
FNDA:0,_ZN7testing8internal15TestFactoryImplI33correctness_shl_return_value_TestED0Ev
FNDA:0,_ZN7testing8internal15TestFactoryImplI33correctness_shl_return_value_TestED2Ev
FNDA:0,_ZN7testing8internal15TestFactoryImplI21correctness_shr__TestED0Ev
FNDA:0,_ZN7testing8internal15TestFactoryImplI21correctness_shr__TestED2Ev
FNDA:0,_ZN7testing8internal15TestFactoryImplI23correctness_shr_31_TestED0Ev
FNDA:0,_ZN7testing8internal15TestFactoryImplI23correctness_shr_31_TestED2Ev
FNDA:0,_ZN7testing8internal15TestFactoryImplI27correctness_shr_signed_TestED0Ev
FNDA:0,_ZN7testing8internal15TestFactoryImplI27correctness_shr_signed_TestED2Ev
FNDA:0,_ZN7testing8internal15TestFactoryImplI33correctness_shr_return_value_TestED0Ev
FNDA:0,_ZN7testing8internal15TestFactoryImplI33correctness_shr_return_value_TestED2Ev
FNDA:0,_ZN7testing8internal15TestFactoryImplI25correctness_add_long_TestED0Ev
FNDA:0,_ZN7testing8internal15TestFactoryImplI25correctness_add_long_TestED2Ev
FNDA:0,_ZN7testing8internal15TestFactoryImplI32correctness_add_long_signed_TestED0Ev
FNDA:0,_ZN7testing8internal15TestFactoryImplI32correctness_add_long_signed_TestED2Ev
FNDA:0,_ZN7testing8internal15TestFactoryImplI33correctness_add_long_signed2_TestED0Ev
FNDA:0,_ZN7testing8internal15TestFactoryImplI33correctness_add_long_signed2_TestED2Ev
FNDA:0,_ZN7testing8internal15TestFactoryImplI30correctness_add_long_pow2_TestED0Ev
FNDA:0,_ZN7testing8internal15TestFactoryImplI30correctness_add_long_pow2_TestED2Ev
FNDA:0,_ZN7testing8internal15TestFactoryImplI25correctness_sub_long_TestED0Ev
FNDA:0,_ZN7testing8internal15TestFactoryImplI25correctness_sub_long_TestED2Ev
FNDA:0,_ZN7testing8internal15TestFactoryImplI25correctness_mul_long_TestED0Ev
FNDA:0,_ZN7testing8internal15TestFactoryImplI25correctness_mul_long_TestED2Ev
FNDA:0,_ZN7testing8internal15TestFactoryImplI32correctness_mul_long_signed_TestED0Ev
FNDA:0,_ZN7testing8internal15TestFactoryImplI32correctness_mul_long_signed_TestED2Ev
FNDA:0,_ZN7testing8internal15TestFactoryImplI33correctness_mul_long_signed2_TestED0Ev
FNDA:0,_ZN7testing8internal15TestFactoryImplI33correctness_mul_long_signed2_TestED2Ev
FNDA:0,_ZN7testing8internal15TestFactoryImplI30correctness_mul_long_pow2_TestED0Ev
FNDA:0,_ZN7testing8internal15TestFactoryImplI30correctness_mul_long_pow2_TestED2Ev
FNDA:0,_ZN7testing8internal15TestFactoryImplI25correctness_div_long_TestED0Ev
FNDA:0,_ZN7testing8internal15TestFactoryImplI25correctness_div_long_TestED2Ev
FNDA:0,_ZN7testing8internal15TestFactoryImplI32correctness_div_long_signed_TestED0Ev
FNDA:0,_ZN7testing8internal15TestFactoryImplI32correctness_div_long_signed_TestED2Ev
FNDA:0,_ZN7testing8internal15TestFactoryImplI33correctness_div_long_signed2_TestED0Ev
FNDA:0,_ZN7testing8internal15TestFactoryImplI33correctness_div_long_signed2_TestED2Ev
FNDA:0,_ZN7testing8internal15TestFactoryImplI30correctness_negation_long_TestED0Ev
FNDA:0,_ZN7testing8internal15TestFactoryImplI30correctness_negation_long_TestED2Ev
FNDA:0,_ZN7testing8internal15TestFactoryImplI28correctness_string_conv_TestED0Ev
FNDA:0,_ZN7testing8internal15TestFactoryImplI28correctness_string_conv_TestED2Ev
FNDA:0,_ZN7testing8internal15TestFactoryImplI35correctness_mul_div_randomized_TestED0Ev
FNDA:0,_ZN7testing8internal15TestFactoryImplI35correctness_mul_div_randomized_TestED2Ev
FNDA:0,_ZN7testing8internal15TestFactoryImplI37correctness_mul_merge_randomized_TestED0Ev
FNDA:0,_ZN7testing8internal15TestFactoryImplI37correctness_mul_merge_randomized_TestED2Ev
FNDA:0,_ZN7testing8internal15TestFactoryImplI31correctness_div_randomized_TestED0Ev
FNDA:0,_ZN7testing8internal15TestFactoryImplI31correctness_div_randomized_TestED2Ev
FNDA:1,_ZN7testing8internal15TestFactoryImplI31correctness_div_randomized_TestEC2Ev
FNDA:1,_ZN7testing8internal15TestFactoryImplI37correctness_mul_merge_randomized_TestEC2Ev
FNDA:1,_ZN7testing8internal15TestFactoryImplI35correctness_mul_div_randomized_TestEC2Ev
FNDA:1,_ZN7testing8internal15TestFactoryImplI28correctness_string_conv_TestEC2Ev
FNDA:1,_ZN7testing8internal15TestFactoryImplI30correctness_negation_long_TestEC2Ev
FNDA:1,_ZN7testing8internal15TestFactoryImplI33correctness_div_long_signed2_TestEC2Ev
FNDA:1,_ZN7testing8internal15TestFactoryImplI32correctness_div_long_signed_TestEC2Ev
FNDA:1,_ZN7testing8internal15TestFactoryImplI25correctness_div_long_TestEC2Ev
FNDA:1,_ZN7testing8internal15TestFactoryImplI30correctness_mul_long_pow2_TestEC2Ev
FNDA:1,_ZN7testing8internal15TestFactoryImplI33correctness_mul_long_signed2_TestEC2Ev
FNDA:1,_ZN7testing8internal15TestFactoryImplI32correctness_mul_long_signed_TestEC2Ev
FNDA:1,_ZN7testing8internal15TestFactoryImplI25correctness_mul_long_TestEC2Ev
FNDA:1,_ZN7testing8internal15TestFactoryImplI25correctness_sub_long_TestEC2Ev
FNDA:1,_ZN7testing8internal15TestFactoryImplI30correctness_add_long_pow2_TestEC2Ev
FNDA:1,_ZN7testing8internal15TestFactoryImplI33correctness_add_long_signed2_TestEC2Ev
FNDA:1,_ZN7testing8internal15TestFactoryImplI32correctness_add_long_signed_TestEC2Ev
FNDA:1,_ZN7testing8internal15TestFactoryImplI25correctness_add_long_TestEC2Ev
FNDA:1,_ZN7testing8internal15TestFactoryImplI33correctness_shr_return_value_TestEC2Ev
FNDA:1,_ZN7testing8internal15TestFactoryImplI27correctness_shr_signed_TestEC2Ev
FNDA:1,_ZN7testing8internal15TestFactoryImplI23correctness_shr_31_TestEC2Ev
FNDA:1,_ZN7testing8internal15TestFactoryImplI21correctness_shr__TestEC2Ev
FNDA:1,_ZN7testing8internal15TestFactoryImplI33correctness_shl_return_value_TestEC2Ev
FNDA:1,_ZN7testing8internal15TestFactoryImplI21correctness_shl__TestEC2Ev
FNDA:1,_ZN7testing8internal15TestFactoryImplI21correctness_not__TestEC2Ev
FNDA:1,_ZN7testing8internal15TestFactoryImplI33correctness_xor_return_value_TestEC2Ev
FNDA:1,_ZN7testing8internal15TestFactoryImplI27correctness_xor_signed_TestEC2Ev
FNDA:1,_ZN7testing8internal15TestFactoryImplI21correctness_xor__TestEC2Ev
FNDA:1,_ZN7testing8internal15TestFactoryImplI32correctness_or_return_value_TestEC2Ev
FNDA:1,_ZN7testing8internal15TestFactoryImplI26correctness_or_signed_TestEC2Ev
FNDA:1,_ZN7testing8internal15TestFactoryImplI20correctness_or__TestEC2Ev
FNDA:1,_ZN7testing8internal15TestFactoryImplI33correctness_and_return_value_TestEC2Ev
FNDA:1,_ZN7testing8internal15TestFactoryImplI27correctness_and_signed_TestEC2Ev
FNDA:1,_ZN7testing8internal15TestFactoryImplI21correctness_and__TestEC2Ev
FNDA:1,_ZN7testing8internal15TestFactoryImplI33correctness_negation_int_min_TestEC2Ev
FNDA:1,_ZN7testing8internal15TestFactoryImplI25correctness_negation_TestEC2Ev
FNDA:1,_ZN7testing8internal15TestFactoryImplI27correctness_unary_plus_TestEC2Ev
FNDA:1,_ZN7testing8internal15TestFactoryImplI33correctness_div_return_value_TestEC2Ev
FNDA:1,_ZN7testing8internal15TestFactoryImplI38correctness_div_rounding_negative_TestEC2Ev
FNDA:1,_ZN7testing8internal15TestFactoryImplI29correctness_div_rounding_TestEC2Ev
FNDA:1,_ZN7testing8internal15TestFactoryImplI27correctness_div_signed_TestEC2Ev
FNDA:1,_ZN7testing8internal15TestFactoryImplI30correctness_div_int_min_2_TestEC2Ev
FNDA:1,_ZN7testing8internal15TestFactoryImplI28correctness_div_int_min_TestEC2Ev
FNDA:1,_ZN7testing8internal15TestFactoryImplI21correctness_div__TestEC2Ev
FNDA:1,_ZN7testing8internal15TestFactoryImplI33correctness_mul_return_value_TestEC2Ev
FNDA:1,_ZN7testing8internal15TestFactoryImplI27correctness_mul_signed_TestEC2Ev
FNDA:1,_ZN7testing8internal15TestFactoryImplI20correctness_mul_TestEC2Ev
FNDA:1,_ZN7testing8internal15TestFactoryImplI33correctness_sub_return_value_TestEC2Ev
FNDA:1,_ZN7testing8internal15TestFactoryImplI27correctness_sub_signed_TestEC2Ev
FNDA:1,_ZN7testing8internal15TestFactoryImplI20correctness_sub_TestEC2Ev
FNDA:1,_ZN7testing8internal15TestFactoryImplI33correctness_add_return_value_TestEC2Ev
FNDA:1,_ZN7testing8internal15TestFactoryImplI27correctness_add_signed_TestEC2Ev
FNDA:1,_ZN7testing8internal15TestFactoryImplI20correctness_add_TestEC2Ev
FNDA:1,_ZN7testing8internal15TestFactoryImplI44correctness_compare_zero_and_minus_zero_TestEC2Ev
FNDA:1,_ZN7testing8internal15TestFactoryImplI28correctness_comparisons_TestEC2Ev
FNDA:1,_ZN7testing8internal15TestFactoryImplI40correctness_assignment_return_value_TestEC2Ev
FNDA:1,_ZN7testing8internal15TestFactoryImplI32correctness_self_assignment_TestEC2Ev
FNDA:1,_ZN7testing8internal15TestFactoryImplI36correctness_assignment_operator_TestEC2Ev
FNDA:1,_ZN7testing8internal15TestFactoryImplI37correctness_copy_ctor_real_copy2_TestEC2Ev
FNDA:1,_ZN7testing8internal15TestFactoryImplI36correctness_copy_ctor_real_copy_TestEC2Ev
FNDA:1,_ZN7testing8internal15TestFactoryImplI26correctness_copy_ctor_TestEC2Ev
FNDA:1,_ZN7testing8internal15TestFactoryImplI28correctness_ctor_limits_TestEC2Ev
FNDA:1,_ZN7testing8internal15TestFactoryImplI29correctness_default_ctor_TestEC2Ev
FNDA:1,_ZN7testing8internal15TestFactoryImplI29correctness_two_plus_two_TestEC2Ev
FNDA:1,_ZN7testing8internal15TestFactoryImplI36correctness_minus_from_negative_TestEC2Ev
FNDA:1,_ZN7testing8internal15TestFactoryImplI36correctness_minus_from_negative_TestE10CreateTestEv
FNDA:1,_ZN7testing8internal15TestFactoryImplI29correctness_two_plus_two_TestE10CreateTestEv
FNDA:1,_ZN7testing8internal15TestFactoryImplI29correctness_default_ctor_TestE10CreateTestEv
FNDA:1,_ZN7testing8internal15TestFactoryImplI28correctness_ctor_limits_TestE10CreateTestEv
FNDA:1,_ZN7testing8internal15TestFactoryImplI26correctness_copy_ctor_TestE10CreateTestEv
FNDA:1,_ZN7testing8internal15TestFactoryImplI36correctness_copy_ctor_real_copy_TestE10CreateTestEv
FNDA:1,_ZN7testing8internal15TestFactoryImplI37correctness_copy_ctor_real_copy2_TestE10CreateTestEv
FNDA:1,_ZN7testing8internal15TestFactoryImplI36correctness_assignment_operator_TestE10CreateTestEv
FNDA:1,_ZN7testing8internal15TestFactoryImplI32correctness_self_assignment_TestE10CreateTestEv
FNDA:1,_ZN7testing8internal15TestFactoryImplI40correctness_assignment_return_value_TestE10CreateTestEv
FNDA:1,_ZN7testing8internal15TestFactoryImplI28correctness_comparisons_TestE10CreateTestEv
FNDA:1,_ZN7testing8internal15TestFactoryImplI44correctness_compare_zero_and_minus_zero_TestE10CreateTestEv
FNDA:1,_ZN7testing8internal15TestFactoryImplI20correctness_add_TestE10CreateTestEv
FNDA:1,_ZN7testing8internal15TestFactoryImplI27correctness_add_signed_TestE10CreateTestEv
FNDA:1,_ZN7testing8internal15TestFactoryImplI33correctness_add_return_value_TestE10CreateTestEv
FNDA:1,_ZN7testing8internal15TestFactoryImplI20correctness_sub_TestE10CreateTestEv
FNDA:1,_ZN7testing8internal15TestFactoryImplI27correctness_sub_signed_TestE10CreateTestEv
FNDA:1,_ZN7testing8internal15TestFactoryImplI33correctness_sub_return_value_TestE10CreateTestEv
FNDA:1,_ZN7testing8internal15TestFactoryImplI20correctness_mul_TestE10CreateTestEv
FNDA:1,_ZN7testing8internal15TestFactoryImplI27correctness_mul_signed_TestE10CreateTestEv
FNDA:1,_ZN7testing8internal15TestFactoryImplI33correctness_mul_return_value_TestE10CreateTestEv
FNDA:1,_ZN7testing8internal15TestFactoryImplI21correctness_div__TestE10CreateTestEv
FNDA:1,_ZN7testing8internal15TestFactoryImplI28correctness_div_int_min_TestE10CreateTestEv
FNDA:1,_ZN7testing8internal15TestFactoryImplI30correctness_div_int_min_2_TestE10CreateTestEv
FNDA:1,_ZN7testing8internal15TestFactoryImplI27correctness_div_signed_TestE10CreateTestEv
FNDA:1,_ZN7testing8internal15TestFactoryImplI29correctness_div_rounding_TestE10CreateTestEv
FNDA:1,_ZN7testing8internal15TestFactoryImplI38correctness_div_rounding_negative_TestE10CreateTestEv
FNDA:1,_ZN7testing8internal15TestFactoryImplI33correctness_div_return_value_TestE10CreateTestEv
FNDA:1,_ZN7testing8internal15TestFactoryImplI27correctness_unary_plus_TestE10CreateTestEv
FNDA:1,_ZN7testing8internal15TestFactoryImplI25correctness_negation_TestE10CreateTestEv
FNDA:1,_ZN7testing8internal15TestFactoryImplI33correctness_negation_int_min_TestE10CreateTestEv
FNDA:1,_ZN7testing8internal15TestFactoryImplI21correctness_and__TestE10CreateTestEv
FNDA:1,_ZN7testing8internal15TestFactoryImplI27correctness_and_signed_TestE10CreateTestEv
FNDA:1,_ZN7testing8internal15TestFactoryImplI33correctness_and_return_value_TestE10CreateTestEv
FNDA:1,_ZN7testing8internal15TestFactoryImplI20correctness_or__TestE10CreateTestEv
FNDA:1,_ZN7testing8internal15TestFactoryImplI26correctness_or_signed_TestE10CreateTestEv
FNDA:1,_ZN7testing8internal15TestFactoryImplI32correctness_or_return_value_TestE10CreateTestEv
FNDA:1,_ZN7testing8internal15TestFactoryImplI21correctness_xor__TestE10CreateTestEv
FNDA:1,_ZN7testing8internal15TestFactoryImplI27correctness_xor_signed_TestE10CreateTestEv
FNDA:1,_ZN7testing8internal15TestFactoryImplI33correctness_xor_return_value_TestE10CreateTestEv
FNDA:1,_ZN7testing8internal15TestFactoryImplI21correctness_not__TestE10CreateTestEv
FNDA:1,_ZN7testing8internal15TestFactoryImplI21correctness_shl__TestE10CreateTestEv
FNDA:1,_ZN7testing8internal15TestFactoryImplI33correctness_shl_return_value_TestE10CreateTestEv
FNDA:1,_ZN7testing8internal15TestFactoryImplI21correctness_shr__TestE10CreateTestEv
FNDA:1,_ZN7testing8internal15TestFactoryImplI23correctness_shr_31_TestE10CreateTestEv
FNDA:1,_ZN7testing8internal15TestFactoryImplI27correctness_shr_signed_TestE10CreateTestEv
FNDA:1,_ZN7testing8internal15TestFactoryImplI33correctness_shr_return_value_TestE10CreateTestEv
FNDA:1,_ZN7testing8internal15TestFactoryImplI25correctness_add_long_TestE10CreateTestEv
FNDA:1,_ZN7testing8internal15TestFactoryImplI32correctness_add_long_signed_TestE10CreateTestEv
FNDA:1,_ZN7testing8internal15TestFactoryImplI33correctness_add_long_signed2_TestE10CreateTestEv
FNDA:1,_ZN7testing8internal15TestFactoryImplI30correctness_add_long_pow2_TestE10CreateTestEv
FNDA:1,_ZN7testing8internal15TestFactoryImplI25correctness_sub_long_TestE10CreateTestEv
FNDA:1,_ZN7testing8internal15TestFactoryImplI25correctness_mul_long_TestE10CreateTestEv
FNDA:1,_ZN7testing8internal15TestFactoryImplI32correctness_mul_long_signed_TestE10CreateTestEv
FNDA:1,_ZN7testing8internal15TestFactoryImplI33correctness_mul_long_signed2_TestE10CreateTestEv
FNDA:1,_ZN7testing8internal15TestFactoryImplI30correctness_mul_long_pow2_TestE10CreateTestEv
FNDA:1,_ZN7testing8internal15TestFactoryImplI25correctness_div_long_TestE10CreateTestEv
FNDA:1,_ZN7testing8internal15TestFactoryImplI32correctness_div_long_signed_TestE10CreateTestEv
FNDA:1,_ZN7testing8internal15TestFactoryImplI33correctness_div_long_signed2_TestE10CreateTestEv
FNDA:1,_ZN7testing8internal15TestFactoryImplI30correctness_negation_long_TestE10CreateTestEv
FNDA:1,_ZN7testing8internal15TestFactoryImplI28correctness_string_conv_TestE10CreateTestEv
FNDA:1,_ZN7testing8internal15TestFactoryImplI35correctness_mul_div_randomized_TestE10CreateTestEv
FNDA:1,_ZN7testing8internal15TestFactoryImplI37correctness_mul_merge_randomized_TestE10CreateTestEv
FNDA:1,_ZN7testing8internal15TestFactoryImplI31correctness_div_randomized_TestE10CreateTestEv
FNDA:2,_ZN7testing8internal15IsContainerTestIiEEcl
FNDA:2,_ZN7testing8internal15IsContainerTestI11big_integerEEcl
FNDA:2,_ZN16testing_internal26DefaultPrintNonContainerToIiEEvRKT_PSo
FNDA:2,_ZN16testing_internal26DefaultPrintNonContainerToI11big_integerEEvRKT_PSo
FNDA:2,_ZN7testing8internal14DefaultPrintToIiEEvcNS0_13bool_constantILb0EEERKT_PSo
FNDA:2,_ZN7testing8internal14DefaultPrintToI11big_integerEEvcNS0_13bool_constantILb0EEERKT_PSo
FNDA:2,_ZN7testing8internal7PrintToIiEEvRKT_PSo
FNDA:2,_ZN7testing8internal7PrintToI11big_integerEEvRKT_PSo
FNDA:0,_ZN7testing8internal7PrintToERKNSt7__cxx1112basic_stringIcSt11char_traitsIcESaIcEEEPSo
FNDA:2,_ZN7testing8internal16UniversalPrinterIiE5PrintERKiPSo
FNDA:2,_ZN7testing8internal16UniversalPrinterI11big_integerE5PrintERKS2_PSo
FNDA:0,_ZN7testing8internal16UniversalPrinterINSt7__cxx1112basic_stringIcSt11char_traitsIcESaIcEEEE5PrintERKS7_PSo
FNDA:0,_ZN7testing8internal21UniversalTersePrinterINSt7__cxx1112basic_stringIcSt11char_traitsIcESaIcEEEE5PrintERKS7_PSo
FNDA:2,_ZN7testing8internal21UniversalTersePrinterIiE5PrintERKiPSo
FNDA:2,_ZN7testing8internal21UniversalTersePrinterI11big_integerE5PrintERKS2_PSo
FNDA:0,_ZN7testing8internal21UniversalTersePrinterIPKcE5PrintES3_PSo
FNDA:2,_ZN7testing8internal14UniversalPrintIiEEvRKT_PSo
FNDA:2,_ZN7testing8internal14UniversalPrintI11big_integerEEvRKT_PSo
FNDA:0,_ZN7testing8internal14UniversalPrintINSt7__cxx1112basic_stringIcSt11char_traitsIcESaIcEEEEEvRKT_PSo
FNDA:0,_ZN7testing13PrintToStringINSt7__cxx1112basic_stringIcSt11char_traitsIcESaIcEEEEES6_RKT_
FNDA:2,_ZN7testing13PrintToStringIiEENSt7__cxx1112basic_stringIcSt11char_traitsIcESaIcEEERKT_
FNDA:2,_ZN7testing13PrintToStringI11big_integerEENSt7__cxx1112basic_stringIcSt11char_traitsIcESaIcEEERKT_
FNDA:0,_ZN7testing13PrintToStringIPKcEENSt7__cxx1112basic_stringIcSt11char_traitsIcESaIcEEERKT_
FNDA:70091,_ZN7testing15AssertionResultD2Ev
FNDA:70089,_ZN7testing15AssertionResultC2Eb
FNDA:70089,_ZNK7testing15AssertionResultcvbEv
FNDA:2,_ZNK7testing15AssertionResult7messageEv
FNDA:2,_ZNK7testing15AssertionResult15failure_messageEv
FNDA:0,_ZN7testing15AssertionResultlsIA6_cEERS0_RKT_
FNDA:0,_ZN7testing15AssertionResultlsIA5_cEERS0_RKT_
FNDA:0,_ZN7testing15AssertionResultlsINSt7__cxx1112basic_stringIcSt11char_traitsIcESaIcEEEEERS0_RKT_
FNDA:0,_ZN7testing15AssertionResultlsIA7_cEERS0_RKT_
FNDA:0,_ZN7testing15AssertionResultlsIPKcEERS0_RKT_
FNDA:0,_ZN7testing15AssertionResultlsIA12_cEERS0_RKT_
FNDA:2,_ZN7testing15AssertionResult13AppendMessageERKNS_7MessageE
FNDA:1,_ZN7testing4Test13SetUpTestCaseEv
FNDA:1,_ZN7testing4Test16TearDownTestCaseEv
FNDA:0,_ZN7testing4Test5SetupEv
FNDA:0,_ZN7testing8internal19FormatForComparisonINSt7__cxx1112basic_stringIcSt11char_traitsIcESaIcEEEA18_cE6FormatERKS7_
FNDA:0,_ZN7testing8internal19FormatForComparisonINSt7__cxx1112basic_stringIcSt11char_traitsIcESaIcEEEA2_cE6FormatERKS7_
FNDA:0,_ZN7testing8internal19FormatForComparisonINSt7__cxx1112basic_stringIcSt11char_traitsIcESaIcEEEA4_cE6FormatERKS7_
FNDA:0,_ZN7testing8internal19FormatForComparisonI11big_integerS2_E6FormatERKS2_
FNDA:2,_ZN7testing8internal19FormatForComparisonIi11big_integerE6FormatERKi
FNDA:2,_ZN7testing8internal19FormatForComparisonI11big_integeriE6FormatERKS2_
FNDA:0,_ZN7testing8internal19FormatForComparisonIA18_cNSt7__cxx1112basic_stringIcSt11char_traitsIcESaIcEEEE6FormatEPKc
FNDA:0,_ZN7testing8internal19FormatForComparisonIA2_cNSt7__cxx1112basic_stringIcSt11char_traitsIcESaIcEEEE6FormatEPKc
FNDA:0,_ZN7testing8internal19FormatForComparisonIA4_cNSt7__cxx1112basic_stringIcSt11char_traitsIcESaIcEEEE6FormatEPKc
FNDA:0,_ZN7testing8internal19FormatForComparisonIPKcNSt7__cxx1112basic_stringIcSt11char_traitsIcESaIcEEEE6FormatES3_
FNDA:0,_ZN7testing8internal33FormatForComparisonFailureMessageIA18_cNSt7__cxx1112basic_stringIcSt11char_traitsIcESaIcEEEEES8_RKT_RKT0_
FNDA:0,_ZN7testing8internal33FormatForComparisonFailureMessageINSt7__cxx1112basic_stringIcSt11char_traitsIcESaIcEEEA18_cEES7_RKT_RKT0_
FNDA:0,_ZN7testing8internal33FormatForComparisonFailureMessageIA2_cNSt7__cxx1112basic_stringIcSt11char_traitsIcESaIcEEEEES8_RKT_RKT0_
FNDA:0,_ZN7testing8internal33FormatForComparisonFailureMessageINSt7__cxx1112basic_stringIcSt11char_traitsIcESaIcEEEA2_cEES7_RKT_RKT0_
FNDA:0,_ZN7testing8internal33FormatForComparisonFailureMessageIA4_cNSt7__cxx1112basic_stringIcSt11char_traitsIcESaIcEEEEES8_RKT_RKT0_
FNDA:0,_ZN7testing8internal33FormatForComparisonFailureMessageINSt7__cxx1112basic_stringIcSt11char_traitsIcESaIcEEEA4_cEES7_RKT_RKT0_
FNDA:0,_ZN7testing8internal33FormatForComparisonFailureMessageI11big_integerS2_EENSt7__cxx1112basic_stringIcSt11char_traitsIcESaIcEEERKT_RKT0_
FNDA:2,_ZN7testing8internal33FormatForComparisonFailureMessageIi11big_integerEENSt7__cxx1112basic_stringIcSt11char_traitsIcESaIcEEERKT_RKT0_
FNDA:2,_ZN7testing8internal33FormatForComparisonFailureMessageI11big_integeriEENSt7__cxx1112basic_stringIcSt11char_traitsIcESaIcEEERKT_RKT0_
FNDA:1,_ZN7testing8internal11CmpHelperEQINSt7__cxx1112basic_stringIcSt11char_traitsIcESaIcEEEA18_cEENS_15AssertionResultEPKcSB_RKT_RKT0_
FNDA:2,_ZN7testing8internal11CmpHelperEQINSt7__cxx1112basic_stringIcSt11char_traitsIcESaIcEEEA2_cEENS_15AssertionResultEPKcSB_RKT_RKT0_
FNDA:2,_ZN7testing8internal11CmpHelperEQINSt7__cxx1112basic_stringIcSt11char_traitsIcESaIcEEEA4_cEENS_15AssertionResultEPKcSB_RKT_RKT0_
FNDA:1,_ZN7testing8internal11CmpHelperEQIi11big_integerEENS_15AssertionResultEPKcS5_RKT_RKT0_
FNDA:10022,_ZN7testing8internal11CmpHelperEQI11big_integerS2_EENS_15AssertionResultEPKcS5_RKT_RKT0_
FNDA:24,_ZN7testing8internal11CmpHelperEQI11big_integeriEENS_15AssertionResultEPKcS5_RKT_RKT0_
FNDA:1,_ZN7testing8internal8EqHelperILb0EE7CompareINSt7__cxx1112basic_stringIcSt11char_traitsIcESaIcEEEA18_cEENS_15AssertionResultEPKcSD_RKT_RKT0_
FNDA:2,_ZN7testing8internal8EqHelperILb0EE7CompareINSt7__cxx1112basic_stringIcSt11char_traitsIcESaIcEEEA2_cEENS_15AssertionResultEPKcSD_RKT_RKT0_
FNDA:2,_ZN7testing8internal8EqHelperILb0EE7CompareINSt7__cxx1112basic_stringIcSt11char_traitsIcESaIcEEEA4_cEENS_15AssertionResultEPKcSD_RKT_RKT0_
FNDA:1,_ZN7testing8internal8EqHelperILb0EE7CompareIi11big_integerEENS_15AssertionResultEPKcS7_RKT_RKT0_
FNDA:10022,_ZN7testing8internal8EqHelperILb0EE7CompareI11big_integerS4_EENS_15AssertionResultEPKcS7_RKT_RKT0_
FNDA:24,_ZN7testing8internal8EqHelperILb0EE7CompareI11big_integeriEENS_15AssertionResultEPKcS7_RKT_RKT0_
FNDA:10000,_ZN7testing8internal11CmpHelperLTI11big_integerS2_EENS_15AssertionResultEPKcS5_RKT_RKT0_
FNDA:10000,_ZN7testing8internal11CmpHelperGEI11big_integeriEENS_15AssertionResultEPKcS5_RKT_RKT0_
FNF:345
FNH:184
DA:2001,70091
DA:2002,70209
DA:2004,530
DA:2005,4
DA:2006,6
DA:2014,70211
DA:2015,70211
DA:2016,124
DA:2017,124
DA:2019,124
DA:2021,70211
DA:3157,118
DA:3187,25
DA:3203,25
DA:3204,25
DA:3221,23
DA:3222,23
DA:3223,0
DA:3225,23
DA:3227,23
DA:7396,0
DA:7403,64
DA:7412,64
DA:7414,64
DA:7829,4
DA:9409,4
DA:9436,4
DA:9437,4
DA:9526,4
DA:9529,4
DA:9530,4
DA:9544,4
DA:9567,4
DA:9568,4
DA:9655,0
DA:9656,0
DA:9657,0
DA:9782,4
DA:9791,4
DA:9792,4
DA:9874,4
DA:9875,4
DA:9876,4
DA:9895,0
DA:9896,0
DA:9897,0
DA:9899,0
DA:9901,0
DA:9943,4
DA:9947,4
DA:9948,4
DA:10038,4
DA:10039,8
DA:10040,4
DA:10041,8
DA:17669,70091
DA:17675,70089
DA:17678,70089
DA:17687,2
DA:17688,2
DA:17692,2
DA:17695,0
DA:17696,0
DA:17697,0
DA:17710,2
DA:17711,2
DA:17712,2
DA:17713,2
DA:17714,2
DA:17778,1
DA:17786,1
DA:17864,0
DA:18770,4
DA:18771,4
DA:18779,0
DA:18780,0
DA:18816,0
DA:18844,4
DA:18846,4
DA:18851,10052
DA:18861,10052
DA:18862,10050
DA:18873,2
DA:18893,10052
DA:18898,10052
DA:18994,10000
DA:18996,10000
LF:87
LH:70
end_of_record
TN:
SF:/home/ruperson/Desktop/cpp-course/bigint/big_integer.cpp
FN:14,_Z3abs11big_integer
FN:24,_ZN11big_integer11erase_zerosEv
FN:30,_ZN11big_integer18to_twos_complimentEv
FN:36,_ZN11big_integer17to_sign_magnitudeEv
FN:47,_ZN11big_integerC2Ev
FN:50,_ZN11big_integerC2Ei
FN:54,_ZN11big_integerC2Ej
FN:59,_ZN11big_integerC2ERKNSt7__cxx1112basic_stringIcSt11char_traitsIcESaIcEEE
FN:74,_ZN11big_integerpLERKS_
FN:100,_ZN11big_integermIERKS_
FN:130,_ZN11big_integermLERKS_
FN:156,_ZN11big_integerdVERKS_
FN:195,_ZN11big_integerrMERKS_
FN:199,_ZN11big_integermLEi
FN:205,_ZN11big_integermLEj
FN:216,_ZN11big_integerdVEi
FN:222,_ZN11big_integerdVEj
FN:234,_ZN11big_integer17logical_operationISt6bit_orIvEEERS_RKS_RKT_
FN:234,_ZN11big_integer17logical_operationISt7bit_xorIvEEERS_RKS_RKT_
FN:234,_ZN11big_integer17logical_operationISt7bit_andIvEEERS_RKS_RKT_
FN:255,_ZN11big_integeraNERKS_
FN:258,_ZN11big_integeroRERKS_
FN:261,_ZN11big_integereOERKS_
FN:268,_ZN11big_integerlSEj
FN:275,_ZN11big_integerrSEj
FN:304,_Zpl11big_integerRKS_
FN:308,_Zmi11big_integerRKS_
FN:312,_Zml11big_integerRKS_
FN:317,_Zdv11big_integerRKS_
FN:322,_Zrm11big_integerRKS_
FN:327,_Zan11big_integerRKS_
FN:330,_Zor11big_integerRKS_
FN:333,_Zeo11big_integerRKS_
FN:337,_Zls11big_integerj
FN:341,_Zrs11big_integerj
FN:346,_ZNK11big_integerpsEv
FN:349,_ZNK11big_integerngEv
FN:355,_ZNK11big_integercoEv
FN:359,_ZltRK11big_integerS1_
FN:371,_ZeqRK11big_integerS1_
FN:372,_ZneRK11big_integerS1_
FN:373,_ZgtRK11big_integerS1_
FN:374,_ZleRK11big_integerS1_
FN:375,_ZgeRK11big_integerS1_
FN:377,_Z9to_stringB5cxx1111big_integer
FN:394,_ZlsRSoRK11big_integer
FN:397,_GLOBAL__sub_I__Z3abs11big_integer
FN:397,_Z41__static_initialization_and_destruction_0ii
FNDA:1199711,_Z3abs11big_integer
FNDA:13584904,_ZN11big_integer11erase_zerosEv
FNDA:70,_ZN11big_integer18to_twos_complimentEv
FNDA:40,_ZN11big_integer17to_sign_magnitudeEv
FNDA:1098400,_ZN11big_integerC2Ev
FNDA:17540509,_ZN11big_integerC2Ei
FNDA:6416340,_ZN11big_integerC2Ej
FNDA:410,_ZN11big_integerC2ERKNSt7__cxx1112basic_stringIcSt11char_traitsIcESaIcEEE
FNDA:8814527,_ZN11big_integerpLERKS_
FNDA:8160960,_ZN11big_integermIERKS_
FNDA:3608160,_ZN11big_integermLERKS_
FNDA:599820,_ZN11big_integerdVERKS_
FNDA:100070,_ZN11big_integerrMERKS_
FNDA:1702830,_ZN11big_integermLEi
FNDA:9019340,_ZN11big_integermLEj
FNDA:99910,_ZN11big_integerdVEi
FNDA:300150,_ZN11big_integerdVEj
FNDA:50,_ZN11big_integer17logical_operationISt7bit_xorIvEEERS_RKS_RKT_
FNDA:60,_ZN11big_integer17logical_operationISt6bit_orIvEEERS_RKS_RKT_
FNDA:90,_ZN11big_integer17logical_operationISt7bit_andIvEEERS_RKS_RKT_
FNDA:90,_ZN11big_integeraNERKS_
FNDA:60,_ZN11big_integeroRERKS_
FNDA:50,_ZN11big_integereOERKS_
FNDA:3208210,_ZN11big_integerlSEj
FNDA:70,_ZN11big_integerrSEj
FNDA:120,_Zpl11big_integerRKS_
FNDA:200160,_Zmi11big_integerRKS_
FNDA:3608120,_Zml11big_integerRKS_
FNDA:599790,_Zdv11big_integerRKS_
FNDA:100060,_Zrm11big_integerRKS_
FNDA:60,_Zan11big_integerRKS_
FNDA:30,_Zor11big_integerRKS_
FNDA:30,_Zeo11big_integerRKS_
FNDA:10,_Zls11big_integerj
FNDA:30,_Zrs11big_integerj
FNDA:10,_ZNK11big_integerpsEv
FNDA:11132598,_ZNK11big_integerngEv
FNDA:10,_ZNK11big_integercoEv
FNDA:30258989,_ZltRK11big_integerS1_
FNDA:12233188,_ZeqRK11big_integerS1_
FNDA:11132608,_ZneRK11big_integerS1_
FNDA:4752583,_ZgtRK11big_integerS1_
FNDA:30,_ZleRK11big_integerS1_
FNDA:100081,_ZgeRK11big_integerS1_
FNDA:61,_Z9to_stringB5cxx1111big_integer
FNDA:11,_ZlsRSoRK11big_integer
FNDA:10,_GLOBAL__sub_I__Z3abs11big_integer
FNDA:10,_Z41__static_initialization_and_destruction_0ii
FNF:48
FNH:48
DA:8,10
DA:14,1199711
DA:15,1199711
DA:16,1199711
DA:24,32333294
DA:25,51081684
DA:26,18748390
DA:27,13584904
DA:28,674113
DA:29,13584904
DA:30,70
DA:31,70
DA:32,70
DA:33,70
DA:34,70
DA:36,40
DA:37,40
DA:38,40
DA:39,40
DA:40,40
DA:47,1098400
DA:48,1098400
DA:49,1098400
DA:50,17540509
DA:51,17540509
DA:52,17540509
DA:53,17540509
DA:54,6416340
DA:55,6416340
DA:56,6416340
DA:57,6416340
DA:59,410
DA:60,3240
DA:61,2830
DA:62,2420
DA:63,2420
DA:66,410
DA:67,410
DA:70,410
DA:71,410
DA:74,8814527
DA:75,8814527
DA:76,8814527
DA:77,5247967
DA:79,185826364
DA:80,180578397
DA:81,50
DA:82,180578397
DA:83,180578397
DA:84,180578397
DA:85,180578397
DA:87,5247967
DA:89,3566560
DA:90,594950
DA:93,2971610
DA:94,2971610
DA:95,2971610
DA:100,8160960
DA:101,8160960
DA:102,3408386
DA:105,4752574
DA:106,1
DA:107,1
DA:108,1
DA:110,4752573
DA:111,2371940
DA:112,1185970
DA:113,1185970
DA:116,3566603
DA:117,214202556
DA:118,210635953
DA:119,210635953
DA:120,210635953
DA:121,210635953
DA:122,109452413
DA:123,210635953
DA:125,3566603
DA:126,3566603
DA:130,3608160
DA:132,3608160
DA:133,3608160
DA:134,3309040
DA:135,3309040
DA:136,3309040
DA:141,598240
DA:142,299120
DA:144,2043990
DA:145,89352010
DA:146,87607140
DA:147,87607140
DA:148,87607140
DA:152,299120
DA:153,299120
DA:154,299120
DA:156,599820
DA:157,1199640
DA:158,599820
DA:159,599820
DA:160,599820
DA:161,599820
DA:162,200190
DA:163,200190
DA:164,200190
DA:166,399630
DA:167,399630
DA:168,399630
DA:169,799260
DA:170,399630
DA:171,799260
DA:172,399630
DA:174,3607800
DA:175,3208170
DA:176,3208170
DA:177,3208170
DA:178,3208170
DA:179,2771320
DA:180,2771320
DA:183,3208170
DA:184,3208170
DA:185,4397990
DA:186,594910
DA:187,594910
DA:189,3208170
DA:191,399630
DA:192,399630
DA:193,399630
DA:195,100070
DA:196,100070
DA:199,1702830
DA:201,1702830
DA:202,1702830
DA:203,1702830
DA:205,9019340
DA:206,9019340
DA:207,408929240
DA:208,399909900
DA:209,399909900
DA:210,399909900
DA:212,9019340
DA:213,9019340
DA:214,9019340
DA:216,99910
DA:218,99910
DA:219,99910
DA:220,99910
DA:222,300150
DA:223,300150
DA:224,45546190
DA:225,45246040
DA:226,45246040
DA:227,45246040
DA:229,300150
DA:230,300150
DA:234,200
DA:235,400
DA:236,200
DA:237,200
DA:238,50
DA:239,50
DA:241,200
DA:242,0
DA:243,0
DA:245,200
DA:246,400
DA:247,200
DA:248,200
DA:250,200
DA:251,20
DA:252,400
DA:255,90
DA:256,90
DA:258,60
DA:259,60
DA:261,50
DA:262,50
DA:268,6416380
DA:269,9624550
DA:270,3208170
DA:271,3208170
DA:273,3208210
DA:275,70
DA:276,70
DA:277,70
DA:278,0
DA:279,0
DA:280,0
DA:282,70
DA:284,20
DA:286,20
DA:287,20
DA:288,40
DA:289,20
DA:290,0
DA:291,0
DA:293,20
DA:295,20
DA:296,20
DA:298,20
DA:300,20
DA:304,120
DA:305,120
DA:306,120
DA:308,200160
DA:309,200160
DA:310,200160
DA:312,3608120
DA:314,3608120
DA:315,3608120
DA:317,599790
DA:319,599790
DA:320,599790
DA:322,100060
DA:324,100060
DA:325,100060
DA:327,60
DA:328,60
DA:330,30
DA:331,30
DA:333,30
DA:334,30
DA:337,10
DA:338,10
DA:339,10
DA:341,30
DA:342,30
DA:343,30
DA:346,10
DA:347,10
DA:349,11132598
DA:350,11132598
DA:351,11132598
DA:352,10496368
DA:353,11132598
DA:355,10
DA:356,10
DA:359,30258989
DA:361,30258989
DA:362,26101086
DA:363,18740030
DA:365,20503875
DA:366,17793336
DA:367,4650517
DA:369,2710539
DA:371,12233188
DA:372,11132608
DA:373,4752583
DA:374,30
DA:375,100081
DA:377,61
DA:378,61
DA:379,61
DA:380,81
DA:381,20
DA:382,10
DA:383,90
DA:384,10
DA:385,10
DA:387,122
DA:388,61
DA:389,61
DA:390,61
DA:391,61
DA:392,122
DA:394,11
DA:396,11
DA:397,30
LF:266
LH:259
end_of_record
SF:/home/ruperson/Desktop/cpp-course/bigint/big_integer.h
FN:13,_ZN11big_integerD2Ev
FN:13,_ZN11big_integeraSERKS_
FN:13,_ZN11big_integerC2ERKS_
FNDA:8727272,_ZN11big_integeraSERKS_
FNDA:25636251,_ZN11big_integerC2ERKS_
FNDA:50691910,_ZN11big_integerD2Ev
FNF:3
FNH:3
DA:13,85055433
LF:1
LH:1
end_of_record
